libsymengine.so.0.6:_Z5yylexPN9SymEngine7YYSTYPEERNS_6ParserE
libsymengine.so.0.6:_Z7yyerrorRN9SymEngine6ParserERKNSt7__cxx1112basic_stringIcSt11char_traitsIcESaIcEEE
libsymengine.so.0.6:_Z7yyparseRN9SymEngine6ParserE
libsymengine.so.0.6:_ZN9SymEngine10ComplementC1ERKNS_3RCPIKNS_3SetEEES6_
libsymengine.so.0.6:_ZN9SymEngine10ComplementC2ERKNS_3RCPIKNS_3SetEEES6_
libsymengine.so.0.6:_ZN9SymEngine10ComplexMPCC1ENS_9mpc_classE
libsymengine.so.0.6:_ZN9SymEngine10ComplexMPCC2ENS_9mpc_classE
libsymengine.so.0.6:_ZN9SymEngine10DerivativeC1ERKNS_3RCPIKNS_5BasicEEERKSt8multisetIS4_NS_15RCPBasicKeyLessESaIS4_EE
libsymengine.so.0.6:_ZN9SymEngine10DerivativeC2ERKNS_3RCPIKNS_5BasicEEERKSt8multisetIS4_NS_15RCPBasicKeyLessESaIS4_EE
libsymengine.so.0.6:_ZN9SymEngine10ExpressionC1ERKNSt7__cxx1112basic_stringIcSt11char_traitsIcESaIcEEE
libsymengine.so.0.6:_ZN9SymEngine10ExpressionC2ERKNSt7__cxx1112basic_stringIcSt11char_traitsIcESaIcEEE
libsymengine.so.0.6:_ZN9SymEngine10LeviCivitaC1EOKSt6vectorINS_3RCPIKNS_5BasicEEESaIS5_EE
libsymengine.so.0.6:_ZN9SymEngine10LeviCivitaC2EOKSt6vectorINS_3RCPIKNS_5BasicEEESaIS5_EE
libsymengine.so.0.6:_ZN9SymEngine10LowerGammaC1ERKNS_3RCPIKNS_5BasicEEES6_
libsymengine.so.0.6:_ZN9SymEngine10LowerGammaC2ERKNS_3RCPIKNS_5BasicEEES6_
libsymengine.so.0.6:_ZN9SymEngine10Precedence13getPrecedenceERKNS_3RCPIKNS_5BasicEEE
libsymengine.so.0.6:_ZN9SymEngine10Precedence6bvisitERKNS_10ComplexMPCE
libsymengine.so.0.6:_ZN9SymEngine10Precedence6bvisitERKNS_10RealDoubleE
libsymengine.so.0.6:_ZN9SymEngine10Precedence6bvisitERKNS_10RelationalE
libsymengine.so.0.6:_ZN9SymEngine10Precedence6bvisitERKNS_11GaloisFieldE
libsymengine.so.0.6:_ZN9SymEngine10Precedence6bvisitERKNS_13ComplexDoubleE
libsymengine.so.0.6:_ZN9SymEngine10Precedence6bvisitERKNS_3AddE
libsymengine.so.0.6:_ZN9SymEngine10Precedence6bvisitERKNS_3MulE
libsymengine.so.0.6:_ZN9SymEngine10Precedence6bvisitERKNS_3PowE
libsymengine.so.0.6:_ZN9SymEngine10Precedence6bvisitERKNS_5BasicE
libsymengine.so.0.6:_ZN9SymEngine10Precedence6bvisitERKNS_7ComplexE
libsymengine.so.0.6:_ZN9SymEngine10Precedence6bvisitERKNS_7IntegerE
libsymengine.so.0.6:_ZN9SymEngine10Precedence6bvisitERKNS_8RationalE
libsymengine.so.0.6:_ZN9SymEngine10Precedence6bvisitERKNS_8RealMPFRE
libsymengine.so.0.6:_ZN9SymEngine10RealDoubleC1Ed
libsymengine.so.0.6:_ZN9SymEngine10RealDoubleC2Ed
libsymengine.so.0.6:_ZN9SymEngine10RelationalC1ERKNS_3RCPIKNS_5BasicEEES6_
libsymengine.so.0.6:_ZN9SymEngine10RelationalC2ERKNS_3RCPIKNS_5BasicEEES6_
libsymengine.so.0.6:_ZN9SymEngine10StrPrinter10_print_powERNSt7__cxx1119basic_ostringstreamIcSt11char_traitsIcESaIcEEERKNS_3RCPIKNS_5BasicEEESD_
libsymengine.so.0.6:_ZN9SymEngine10StrPrinter12parenthesizeERKNSt7__cxx1112basic_stringIcSt11char_traitsIcESaIcEEE
libsymengine.so.0.6:_ZN9SymEngine10StrPrinter14parenthesizeLEB5cxx11ERKNS_3RCPIKNS_5BasicEEENS_14PrecedenceEnumE
libsymengine.so.0.6:_ZN9SymEngine10StrPrinter14parenthesizeLTB5cxx11ERKNS_3RCPIKNS_5BasicEEENS_14PrecedenceEnumE
libsymengine.so.0.6:_ZN9SymEngine10StrPrinter14split_mul_coefEv
libsymengine.so.0.6:_ZN9SymEngine10StrPrinter15get_imag_symbolB5cxx11Ev
libsymengine.so.0.6:_ZN9SymEngine10StrPrinter5applyB5cxx11ERKNS_3RCPIKNS_5BasicEEE
libsymengine.so.0.6:_ZN9SymEngine10StrPrinter5applyB5cxx11ERKNS_5BasicE
libsymengine.so.0.6:_ZN9SymEngine10StrPrinter5applyB5cxx11ERKSt6vectorINS_3RCPIKNS_5BasicEEESaIS5_EE
libsymengine.so.0.6:_ZN9SymEngine10StrPrinter6bvisitERKNS_10ComplementE
libsymengine.so.0.6:_ZN9SymEngine10StrPrinter6bvisitERKNS_10ComplexMPCE
libsymengine.so.0.6:_ZN9SymEngine10StrPrinter6bvisitERKNS_10DerivativeE
libsymengine.so.0.6:_ZN9SymEngine10StrPrinter6bvisitERKNS_10RealDoubleE
libsymengine.so.0.6:_ZN9SymEngine10StrPrinter6bvisitERKNS_10UnequalityE
libsymengine.so.0.6:_ZN9SymEngine10StrPrinter6bvisitERKNS_11BooleanAtomE
libsymengine.so.0.6:_ZN9SymEngine10StrPrinter6bvisitERKNS_11GaloisFieldE
libsymengine.so.0.6:_ZN9SymEngine10StrPrinter6bvisitERKNS_12ConditionSetE
libsymengine.so.0.6:_ZN9SymEngine10StrPrinter6bvisitERKNS_12UniversalSetE
libsymengine.so.0.6:_ZN9SymEngine10StrPrinter6bvisitERKNS_13ComplexDoubleE
libsymengine.so.0.6:_ZN9SymEngine10StrPrinter6bvisitERKNS_13NumberWrapperE
libsymengine.so.0.6:_ZN9SymEngine10StrPrinter6bvisitERKNS_14FunctionSymbolE
libsymengine.so.0.6:_ZN9SymEngine10StrPrinter6bvisitERKNS_14StrictLessThanE
libsymengine.so.0.6:_ZN9SymEngine10StrPrinter6bvisitERKNS_16UnivariateSeriesE
libsymengine.so.0.6:_ZN9SymEngine10StrPrinter6bvisitERKNS_2OrE
libsymengine.so.0.6:_ZN9SymEngine10StrPrinter6bvisitERKNS_3AddE
libsymengine.so.0.6:_ZN9SymEngine10StrPrinter6bvisitERKNS_3AndE
libsymengine.so.0.6:_ZN9SymEngine10StrPrinter6bvisitERKNS_3MulE
libsymengine.so.0.6:_ZN9SymEngine10StrPrinter6bvisitERKNS_3NaNE
libsymengine.so.0.6:_ZN9SymEngine10StrPrinter6bvisitERKNS_3NotE
libsymengine.so.0.6:_ZN9SymEngine10StrPrinter6bvisitERKNS_3PowE
libsymengine.so.0.6:_ZN9SymEngine10StrPrinter6bvisitERKNS_3XorE
libsymengine.so.0.6:_ZN9SymEngine10StrPrinter6bvisitERKNS_4SubsE
libsymengine.so.0.6:_ZN9SymEngine10StrPrinter6bvisitERKNS_5BasicE
libsymengine.so.0.6:_ZN9SymEngine10StrPrinter6bvisitERKNS_5InftyE
libsymengine.so.0.6:_ZN9SymEngine10StrPrinter6bvisitERKNS_5UnionE
libsymengine.so.0.6:_ZN9SymEngine10StrPrinter6bvisitERKNS_6SymbolE
libsymengine.so.0.6:_ZN9SymEngine10StrPrinter6bvisitERKNS_7ComplexE
libsymengine.so.0.6:_ZN9SymEngine10StrPrinter6bvisitERKNS_7IntegerE
libsymengine.so.0.6:_ZN9SymEngine10StrPrinter6bvisitERKNS_8ConstantE
libsymengine.so.0.6:_ZN9SymEngine10StrPrinter6bvisitERKNS_8ContainsE
libsymengine.so.0.6:_ZN9SymEngine10StrPrinter6bvisitERKNS_8EmptySetE
libsymengine.so.0.6:_ZN9SymEngine10StrPrinter6bvisitERKNS_8EqualityE
libsymengine.so.0.6:_ZN9SymEngine10StrPrinter6bvisitERKNS_8FunctionE
libsymengine.so.0.6:_ZN9SymEngine10StrPrinter6bvisitERKNS_8ImageSetE
libsymengine.so.0.6:_ZN9SymEngine10StrPrinter6bvisitERKNS_8IntervalE
libsymengine.so.0.6:_ZN9SymEngine10StrPrinter6bvisitERKNS_8LessThanE
libsymengine.so.0.6:_ZN9SymEngine10StrPrinter6bvisitERKNS_8MIntPolyE
libsymengine.so.0.6:_ZN9SymEngine10StrPrinter6bvisitERKNS_8RationalE
libsymengine.so.0.6:_ZN9SymEngine10StrPrinter6bvisitERKNS_8RealMPFRE
libsymengine.so.0.6:_ZN9SymEngine10StrPrinter6bvisitERKNS_8UIntPolyE
libsymengine.so.0.6:_ZN9SymEngine10StrPrinter6bvisitERKNS_8URatPolyE
libsymengine.so.0.6:_ZN9SymEngine10StrPrinter6bvisitERKNS_9FiniteSetE
libsymengine.so.0.6:_ZN9SymEngine10StrPrinter6bvisitERKNS_9MExprPolyE
libsymengine.so.0.6:_ZN9SymEngine10StrPrinter6bvisitERKNS_9PiecewiseE
libsymengine.so.0.6:_ZN9SymEngine10StrPrinter6bvisitERKNS_9UExprPolyE
libsymengine.so.0.6:_ZN9SymEngine10StrPrinter9print_divERKNSt7__cxx1112basic_stringIcSt11char_traitsIcESaIcEEES8_b
libsymengine.so.0.6:_ZN9SymEngine10StrPrinter9print_mulB5cxx11Ev
libsymengine.so.0.6:_ZN9SymEngine10UnequalityC1ERKNS_3RCPIKNS_5BasicEEES6_
libsymengine.so.0.6:_ZN9SymEngine10UnequalityC2ERKNS_3RCPIKNS_5BasicEEES6_
libsymengine.so.0.6:_ZN9SymEngine10UpperGammaC1ERKNS_3RCPIKNS_5BasicEEES6_
libsymengine.so.0.6:_ZN9SymEngine10UpperGammaC2ERKNS_3RCPIKNS_5BasicEEES6_
libsymengine.so.0.6:_ZN9SymEngine10carmichaelERKNS_3RCPIKNS_7IntegerEEE
libsymengine.so.0.6:_ZN9SymEngine10det_bareisERKNS_11DenseMatrixE
libsymengine.so.0.6:_ZN9SymEngine10fibonacci2ERKNS_3PtrINS_3RCPIKNS_7IntegerEEEEES7_m
libsymengine.so.0.6:_ZN9SymEngine10has_symbolERKNS_5BasicES2_
libsymengine.so.0.6:_ZN9SymEngine10i_nth_rootERKNS_3PtrINS_3RCPIKNS_7IntegerEEEEERS3_m
libsymengine.so.0.6:_ZN9SymEngine10inverse_LUERKNS_11DenseMatrixERS0_
libsymengine.so.0.6:_ZN9SymEngine10is_minimumERKNS_11DenseMatrixERKSt6vectorIS0_SaIS0_EEj
libsymengine.so.0.6:_ZN9SymEngine10logical_orERKSt3setINS_3RCPIKNS_7BooleanEEENS_15RCPBasicKeyLessESaIS4_EE
libsymengine.so.0.6:_ZN9SymEngine10lowergammaERKNS_3RCPIKNS_5BasicEEES5_
libsymengine.so.0.6:_ZN9SymEngine10permuteFwdERNS_11DenseMatrixERSt6vectorISt4pairIiiESaIS4_EE
libsymengine.so.0.6:_ZN9SymEngine10pivoted_LUERKNS_11DenseMatrixERS0_RSt6vectorISt4pairIiiESaIS6_EE
libsymengine.so.0.6:_ZN9SymEngine10pivoted_LUERKNS_11DenseMatrixERS0_S3_RSt6vectorISt4pairIiiESaIS6_EE
libsymengine.so.0.6:_ZN9SymEngine10pow_numberERKNS_7ComplexEm
libsymengine.so.0.6:_ZN9SymEngine10quotient_fERKNS_7IntegerES2_
libsymengine.so.0.6:_ZN9SymEngine10set_as_vecERKSt3setINS_3RCPIKNS_5BasicEEENS_15RCPBasicKeyLessESaIS4_EE
libsymengine.so.0.6:_ZN9SymEngine10solve_polyERKNS_3RCPIKNS_5BasicEEERKNS0_IKNS_6SymbolEEERKNS0_IKNS_3SetEEE
libsymengine.so.0.6:_ZN9SymEngine10solve_trigERKNS_3RCPIKNS_5BasicEEERKNS0_IKNS_6SymbolEEERKNS0_IKNS_3SetEEE
libsymengine.so.0.6:_ZN9SymEngine10uppergammaERKNS_3RCPIKNS_5BasicEEES5_
libsymengine.so.0.6:_ZN9SymEngine11BooleanAtomC1Eb
libsymengine.so.0.6:_ZN9SymEngine11BooleanAtomC2Eb
libsymengine.so.0.6:_ZN9SymEngine11CodePrinter6bvisitERKNS_10DerivativeE
libsymengine.so.0.6:_ZN9SymEngine11CodePrinter6bvisitERKNS_10UnequalityE
libsymengine.so.0.6:_ZN9SymEngine11CodePrinter6bvisitERKNS_11GaloisFieldE
libsymengine.so.0.6:_ZN9SymEngine11CodePrinter6bvisitERKNS_12UniversalSetE
libsymengine.so.0.6:_ZN9SymEngine11CodePrinter6bvisitERKNS_14StrictLessThanE
libsymengine.so.0.6:_ZN9SymEngine11CodePrinter6bvisitERKNS_16UnivariateSeriesE
libsymengine.so.0.6:_ZN9SymEngine11CodePrinter6bvisitERKNS_3AbsE
libsymengine.so.0.6:_ZN9SymEngine11CodePrinter6bvisitERKNS_3MaxE
libsymengine.so.0.6:_ZN9SymEngine11CodePrinter6bvisitERKNS_3MinE
libsymengine.so.0.6:_ZN9SymEngine11CodePrinter6bvisitERKNS_3NaNE
libsymengine.so.0.6:_ZN9SymEngine11CodePrinter6bvisitERKNS_4SubsE
libsymengine.so.0.6:_ZN9SymEngine11CodePrinter6bvisitERKNS_5BasicE
libsymengine.so.0.6:_ZN9SymEngine11CodePrinter6bvisitERKNS_7CeilingE
libsymengine.so.0.6:_ZN9SymEngine11CodePrinter6bvisitERKNS_7ComplexE
libsymengine.so.0.6:_ZN9SymEngine11CodePrinter6bvisitERKNS_8ConstantE
libsymengine.so.0.6:_ZN9SymEngine11CodePrinter6bvisitERKNS_8ContainsE
libsymengine.so.0.6:_ZN9SymEngine11CodePrinter6bvisitERKNS_8EmptySetE
libsymengine.so.0.6:_ZN9SymEngine11CodePrinter6bvisitERKNS_8EqualityE
libsymengine.so.0.6:_ZN9SymEngine11CodePrinter6bvisitERKNS_8IntervalE
libsymengine.so.0.6:_ZN9SymEngine11CodePrinter6bvisitERKNS_8LessThanE
libsymengine.so.0.6:_ZN9SymEngine11CodePrinter6bvisitERKNS_8RationalE
libsymengine.so.0.6:_ZN9SymEngine11CodePrinter6bvisitERKNS_8TruncateE
libsymengine.so.0.6:_ZN9SymEngine11CodePrinter6bvisitERKNS_9FiniteSetE
libsymengine.so.0.6:_ZN9SymEngine11CodePrinter6bvisitERKNS_9PiecewiseE
libsymengine.so.0.6:_ZN9SymEngine11DenseMatrix10col_insertERKS0_j
libsymengine.so.0.6:_ZN9SymEngine11DenseMatrix10row_insertERKS0_j
libsymengine.so.0.6:_ZN9SymEngine11DenseMatrix3setEjjRKNS_3RCPIKNS_5BasicEEE
libsymengine.so.0.6:_ZN9SymEngine11DenseMatrix6resizeEjj
libsymengine.so.0.6:_ZN9SymEngine11DenseMatrix7col_delEj
libsymengine.so.0.6:_ZN9SymEngine11DenseMatrix7row_delEj
libsymengine.so.0.6:_ZN9SymEngine11DenseMatrix8col_joinERKS0_
libsymengine.so.0.6:_ZN9SymEngine11DenseMatrix8row_joinERKS0_
libsymengine.so.0.6:_ZN9SymEngine11DenseMatrixC1ERKSt6vectorINS_3RCPIKNS_5BasicEEESaIS5_EE
libsymengine.so.0.6:_ZN9SymEngine11DenseMatrixC1Ejj
libsymengine.so.0.6:_ZN9SymEngine11DenseMatrixC1EjjRKSt6vectorINS_3RCPIKNS_5BasicEEESaIS5_EE
libsymengine.so.0.6:_ZN9SymEngine11DenseMatrixC1Ev
libsymengine.so.0.6:_ZN9SymEngine11DenseMatrixC2ERKSt6vectorINS_3RCPIKNS_5BasicEEESaIS5_EE
libsymengine.so.0.6:_ZN9SymEngine11DenseMatrixC2Ejj
libsymengine.so.0.6:_ZN9SymEngine11DenseMatrixC2EjjRKSt6vectorINS_3RCPIKNS_5BasicEEESaIS5_EE
libsymengine.so.0.6:_ZN9SymEngine11DenseMatrixC2Ev
libsymengine.so.0.6:_ZN9SymEngine11DiffVisitor5applyERKNS_3RCPIKNS_5BasicEEE
libsymengine.so.0.6:_ZN9SymEngine11DiffVisitor5applyERKNS_5BasicE
libsymengine.so.0.6:_ZN9SymEngine11DiffVisitor6bvisitERKNS_10DerivativeE
libsymengine.so.0.6:_ZN9SymEngine11DiffVisitor6bvisitERKNS_10LowerGammaE
libsymengine.so.0.6:_ZN9SymEngine11DiffVisitor6bvisitERKNS_10UpperGammaE
libsymengine.so.0.6:_ZN9SymEngine11DiffVisitor6bvisitERKNS_11GaloisFieldE
libsymengine.so.0.6:_ZN9SymEngine11DiffVisitor6bvisitERKNS_11TwoArgBasicINS_8FunctionEEE
libsymengine.so.0.6:_ZN9SymEngine11DiffVisitor6bvisitERKNS_14OneArgFunctionE
libsymengine.so.0.6:_ZN9SymEngine11DiffVisitor6bvisitERKNS_15FunctionWrapperE
libsymengine.so.0.6:_ZN9SymEngine11DiffVisitor6bvisitERKNS_16MultiArgFunctionE
libsymengine.so.0.6:_ZN9SymEngine11DiffVisitor6bvisitERKNS_16UnivariateSeriesE
libsymengine.so.0.6:_ZN9SymEngine11DiffVisitor6bvisitERKNS_3AbsE
libsymengine.so.0.6:_ZN9SymEngine11DiffVisitor6bvisitERKNS_3AddE
libsymengine.so.0.6:_ZN9SymEngine11DiffVisitor6bvisitERKNS_3CosE
libsymengine.so.0.6:_ZN9SymEngine11DiffVisitor6bvisitERKNS_3CotE
libsymengine.so.0.6:_ZN9SymEngine11DiffVisitor6bvisitERKNS_3CscE
libsymengine.so.0.6:_ZN9SymEngine11DiffVisitor6bvisitERKNS_3ErfE
libsymengine.so.0.6:_ZN9SymEngine11DiffVisitor6bvisitERKNS_3LogE
libsymengine.so.0.6:_ZN9SymEngine11DiffVisitor6bvisitERKNS_3MaxE
libsymengine.so.0.6:_ZN9SymEngine11DiffVisitor6bvisitERKNS_3MinE
libsymengine.so.0.6:_ZN9SymEngine11DiffVisitor6bvisitERKNS_3MulE
libsymengine.so.0.6:_ZN9SymEngine11DiffVisitor6bvisitERKNS_3PowE
libsymengine.so.0.6:_ZN9SymEngine11DiffVisitor6bvisitERKNS_3SecE
libsymengine.so.0.6:_ZN9SymEngine11DiffVisitor6bvisitERKNS_3SetE
libsymengine.so.0.6:_ZN9SymEngine11DiffVisitor6bvisitERKNS_3SinE
libsymengine.so.0.6:_ZN9SymEngine11DiffVisitor6bvisitERKNS_3TanE
libsymengine.so.0.6:_ZN9SymEngine11DiffVisitor6bvisitERKNS_4ACosE
libsymengine.so.0.6:_ZN9SymEngine11DiffVisitor6bvisitERKNS_4ACotE
libsymengine.so.0.6:_ZN9SymEngine11DiffVisitor6bvisitERKNS_4ACscE
libsymengine.so.0.6:_ZN9SymEngine11DiffVisitor6bvisitERKNS_4ASecE
libsymengine.so.0.6:_ZN9SymEngine11DiffVisitor6bvisitERKNS_4ASinE
libsymengine.so.0.6:_ZN9SymEngine11DiffVisitor6bvisitERKNS_4ATanE
libsymengine.so.0.6:_ZN9SymEngine11DiffVisitor6bvisitERKNS_4BetaE
libsymengine.so.0.6:_ZN9SymEngine11DiffVisitor6bvisitERKNS_4CoshE
libsymengine.so.0.6:_ZN9SymEngine11DiffVisitor6bvisitERKNS_4CothE
libsymengine.so.0.6:_ZN9SymEngine11DiffVisitor6bvisitERKNS_4CschE
libsymengine.so.0.6:_ZN9SymEngine11DiffVisitor6bvisitERKNS_4ErfcE
libsymengine.so.0.6:_ZN9SymEngine11DiffVisitor6bvisitERKNS_4SechE
libsymengine.so.0.6:_ZN9SymEngine11DiffVisitor6bvisitERKNS_4SinhE
libsymengine.so.0.6:_ZN9SymEngine11DiffVisitor6bvisitERKNS_4SubsE
libsymengine.so.0.6:_ZN9SymEngine11DiffVisitor6bvisitERKNS_4TanhE
libsymengine.so.0.6:_ZN9SymEngine11DiffVisitor6bvisitERKNS_4ZetaE
libsymengine.so.0.6:_ZN9SymEngine11DiffVisitor6bvisitERKNS_5ACoshE
libsymengine.so.0.6:_ZN9SymEngine11DiffVisitor6bvisitERKNS_5ACothE
libsymengine.so.0.6:_ZN9SymEngine11DiffVisitor6bvisitERKNS_5ACschE
libsymengine.so.0.6:_ZN9SymEngine11DiffVisitor6bvisitERKNS_5ASechE
libsymengine.so.0.6:_ZN9SymEngine11DiffVisitor6bvisitERKNS_5ASinhE
libsymengine.so.0.6:_ZN9SymEngine11DiffVisitor6bvisitERKNS_5ATan2E
libsymengine.so.0.6:_ZN9SymEngine11DiffVisitor6bvisitERKNS_5ATanhE
libsymengine.so.0.6:_ZN9SymEngine11DiffVisitor6bvisitERKNS_5GammaE
libsymengine.so.0.6:_ZN9SymEngine11DiffVisitor6bvisitERKNS_6NumberE
libsymengine.so.0.6:_ZN9SymEngine11DiffVisitor6bvisitERKNS_6SymbolE
libsymengine.so.0.6:_ZN9SymEngine11DiffVisitor6bvisitERKNS_7BooleanE
libsymengine.so.0.6:_ZN9SymEngine11DiffVisitor6bvisitERKNS_8ConstantE
libsymengine.so.0.6:_ZN9SymEngine11DiffVisitor6bvisitERKNS_8LambertWE
libsymengine.so.0.6:_ZN9SymEngine11DiffVisitor6bvisitERKNS_8LogGammaE
libsymengine.so.0.6:_ZN9SymEngine11DiffVisitor6bvisitERKNS_8MIntPolyE
libsymengine.so.0.6:_ZN9SymEngine11DiffVisitor6bvisitERKNS_8UIntPolyE
libsymengine.so.0.6:_ZN9SymEngine11DiffVisitor6bvisitERKNS_8URatPolyE
libsymengine.so.0.6:_ZN9SymEngine11DiffVisitor6bvisitERKNS_9MExprPolyE
libsymengine.so.0.6:_ZN9SymEngine11DiffVisitor6bvisitERKNS_9PiecewiseE
libsymengine.so.0.6:_ZN9SymEngine11DiffVisitor6bvisitERKNS_9PolyGammaE
libsymengine.so.0.6:_ZN9SymEngine11DiffVisitor6bvisitERKNS_9UExprPolyE
libsymengine.so.0.6:_ZN9SymEngine11GaloisField13from_uintpolyERKNS_8UIntPolyERKNS_11mpz_wrapperE
libsymengine.so.0.6:_ZN9SymEngine11GaloisField8from_vecERKNS_3RCPIKNS_5BasicEEERKSt6vectorINS_11mpz_wrapperESaIS8_EERKS8_
libsymengine.so.0.6:_ZN9SymEngine11GaloisField9from_dictERKNS_3RCPIKNS_5BasicEEEONS_15GaloisFieldDictE
libsymengine.so.0.6:_ZN9SymEngine11GaloisFieldC1ERKNS_3RCPIKNS_5BasicEEEONS_15GaloisFieldDictE
libsymengine.so.0.6:_ZN9SymEngine11GaloisFieldC2ERKNS_3RCPIKNS_5BasicEEEONS_15GaloisFieldDictE
libsymengine.so.0.6:_ZN9SymEngine11eval_doubleERKNS_5BasicE
libsymengine.so.0.6:_ZN9SymEngine11get_num_denERKNS_8RationalERKNS_3PtrINS_3RCPIKNS_7IntegerEEEEESA_
libsymengine.so.0.6:_ZN9SymEngine11get_versionEv
libsymengine.so.0.6:_ZN9SymEngine11levi_civitaERKSt6vectorINS_3RCPIKNS_5BasicEEESaIS4_EE
libsymengine.so.0.6:_ZN9SymEngine11logical_andERKSt3setINS_3RCPIKNS_7BooleanEEENS_15RCPBasicKeyLessESaIS4_EE
libsymengine.so.0.6:_ZN9SymEngine11logical_norERKSt3setINS_3RCPIKNS_7BooleanEEENS_15RCPBasicKeyLessESaIS4_EE
libsymengine.so.0.6:_ZN9SymEngine11logical_notERKNS_3RCPIKNS_7BooleanEEE
libsymengine.so.0.6:_ZN9SymEngine11logical_xorERKSt6vectorINS_3RCPIKNS_7BooleanEEESaIS4_EE
libsymengine.so.0.6:_ZN9SymEngine11mod_inverseERKNS_3PtrINS_3RCPIKNS_7IntegerEEEEERS3_S8_
libsymengine.so.0.6:_ZN9SymEngine11nthroot_modERKNS_3PtrINS_3RCPIKNS_7IntegerEEEEERKS4_S9_S9_
libsymengine.so.0.6:_ZN9SymEngine11real_doubleEd
libsymengine.so.0.6:_ZN9SymEngine12ConditionSet12is_canonicalERKNS_3RCPIKNS_5BasicEEERKNS1_IKNS_7BooleanEEE
libsymengine.so.0.6:_ZN9SymEngine12ConditionSetC1ERKNS_3RCPIKNS_5BasicEEERKNS1_IKNS_7BooleanEEE
libsymengine.so.0.6:_ZN9SymEngine12ConditionSetC2ERKNS_3RCPIKNS_5BasicEEERKNS1_IKNS_7BooleanEEE
libsymengine.so.0.6:_ZN9SymEngine12LatexPrinter10_print_powERNSt7__cxx1119basic_ostringstreamIcSt11char_traitsIcESaIcEEERKNS_3RCPIKNS_5BasicEEESD_
libsymengine.so.0.6:_ZN9SymEngine12LatexPrinter12parenthesizeERKNSt7__cxx1112basic_stringIcSt11char_traitsIcESaIcEEE
libsymengine.so.0.6:_ZN9SymEngine12LatexPrinter14split_mul_coefEv
libsymengine.so.0.6:_ZN9SymEngine12LatexPrinter15print_with_argsERKNS_5BasicERKNSt7__cxx1112basic_stringIcSt11char_traitsIcESaIcEEERNS4_19basic_ostringstreamIcS7_S8_EE
libsymengine.so.0.6:_ZN9SymEngine12LatexPrinter6bvisitERKNS_10ComplementE
libsymengine.so.0.6:_ZN9SymEngine12LatexPrinter6bvisitERKNS_10ComplexMPCE
libsymengine.so.0.6:_ZN9SymEngine12LatexPrinter6bvisitERKNS_10DerivativeE
libsymengine.so.0.6:_ZN9SymEngine12LatexPrinter6bvisitERKNS_10UnequalityE
libsymengine.so.0.6:_ZN9SymEngine12LatexPrinter6bvisitERKNS_11BooleanAtomE
libsymengine.so.0.6:_ZN9SymEngine12LatexPrinter6bvisitERKNS_11ComplexBaseE
libsymengine.so.0.6:_ZN9SymEngine12LatexPrinter6bvisitERKNS_12ConditionSetE
libsymengine.so.0.6:_ZN9SymEngine12LatexPrinter6bvisitERKNS_13ComplexDoubleE
libsymengine.so.0.6:_ZN9SymEngine12LatexPrinter6bvisitERKNS_14StrictLessThanE
libsymengine.so.0.6:_ZN9SymEngine12LatexPrinter6bvisitERKNS_2OrE
libsymengine.so.0.6:_ZN9SymEngine12LatexPrinter6bvisitERKNS_3AbsE
libsymengine.so.0.6:_ZN9SymEngine12LatexPrinter6bvisitERKNS_3AndE
libsymengine.so.0.6:_ZN9SymEngine12LatexPrinter6bvisitERKNS_3NaNE
libsymengine.so.0.6:_ZN9SymEngine12LatexPrinter6bvisitERKNS_3NotE
libsymengine.so.0.6:_ZN9SymEngine12LatexPrinter6bvisitERKNS_3XorE
libsymengine.so.0.6:_ZN9SymEngine12LatexPrinter6bvisitERKNS_4SubsE
libsymengine.so.0.6:_ZN9SymEngine12LatexPrinter6bvisitERKNS_5FloorE
libsymengine.so.0.6:_ZN9SymEngine12LatexPrinter6bvisitERKNS_5InftyE
libsymengine.so.0.6:_ZN9SymEngine12LatexPrinter6bvisitERKNS_5UnionE
libsymengine.so.0.6:_ZN9SymEngine12LatexPrinter6bvisitERKNS_6SymbolE
libsymengine.so.0.6:_ZN9SymEngine12LatexPrinter6bvisitERKNS_7CeilingE
libsymengine.so.0.6:_ZN9SymEngine12LatexPrinter6bvisitERKNS_7ComplexE
libsymengine.so.0.6:_ZN9SymEngine12LatexPrinter6bvisitERKNS_8ConstantE
libsymengine.so.0.6:_ZN9SymEngine12LatexPrinter6bvisitERKNS_8ContainsE
libsymengine.so.0.6:_ZN9SymEngine12LatexPrinter6bvisitERKNS_8EmptySetE
libsymengine.so.0.6:_ZN9SymEngine12LatexPrinter6bvisitERKNS_8EqualityE
libsymengine.so.0.6:_ZN9SymEngine12LatexPrinter6bvisitERKNS_8FunctionE
libsymengine.so.0.6:_ZN9SymEngine12LatexPrinter6bvisitERKNS_8ImageSetE
libsymengine.so.0.6:_ZN9SymEngine12LatexPrinter6bvisitERKNS_8IntervalE
libsymengine.so.0.6:_ZN9SymEngine12LatexPrinter6bvisitERKNS_8LessThanE
libsymengine.so.0.6:_ZN9SymEngine12LatexPrinter6bvisitERKNS_8RationalE
libsymengine.so.0.6:_ZN9SymEngine12LatexPrinter6bvisitERKNS_9FiniteSetE
libsymengine.so.0.6:_ZN9SymEngine12LatexPrinter6bvisitERKNS_9PiecewiseE
libsymengine.so.0.6:_ZN9SymEngine12LatexPrinter9print_divERKNSt7__cxx1112basic_stringIcSt11char_traitsIcESaIcEEES8_b
libsymengine.so.0.6:_ZN9SymEngine12LatexPrinter9print_mulB5cxx11Ev
libsymengine.so.0.6:_ZN9SymEngine12UniversalSet11getInstanceEv
libsymengine.so.0.6:_ZN9SymEngine12as_real_imagERKNS_3RCPIKNS_5BasicEEERKNS_3PtrIS3_EES9_
libsymengine.so.0.6:_ZN9SymEngine12conditionsetERKNS_3RCPIKNS_5BasicEEERKNS0_IKNS_7BooleanEEE
libsymengine.so.0.6:_ZN9SymEngine12csr_diagonalERKNS_9CSRMatrixERNS_11DenseMatrixE
libsymengine.so.0.6:_ZN9SymEngine12eigen_valuesERKNS_11DenseMatrixE
libsymengine.so.0.6:_ZN9SymEngine12free_symbolsERKNS_10MatrixBaseE
libsymengine.so.0.6:_ZN9SymEngine12free_symbolsERKNS_5BasicE
libsymengine.so.0.6:_ZN9SymEngine12get_pi_shiftERKNS_3RCPIKNS_5BasicEEERKNS_3PtrINS0_IKNS_6NumberEEEEERKNS6_IS3_EE
libsymengine.so.0.6:_ZN9SymEngine12handle_minusERKNS_3RCPIKNS_5BasicEEERKNS_3PtrIS3_EE
libsymengine.so.0.6:_ZN9SymEngine12logical_nandERKSt3setINS_3RCPIKNS_7BooleanEEENS_15RCPBasicKeyLessESaIS4_EE
libsymengine.so.0.6:_ZN9SymEngine12logical_xnorERKSt6vectorINS_3RCPIKNS_7BooleanEEESaIS4_EE
libsymengine.so.0.6:_ZN9SymEngine12monomial_mulERKSt6vectorIiSaIiEES4_RS2_
libsymengine.so.0.6:_ZN9SymEngine12print_doubleB5cxx11Ed
libsymengine.so.0.6:_ZN9SymEngine12quotient_modERKNS_3PtrINS_3RCPIKNS_7IntegerEEEEES7_RS3_S8_
libsymengine.so.0.6:_ZN9SymEngine12trig_to_sqrtERKNS_3RCPIKNS_5BasicEEE
libsymengine.so.0.6:_ZN9SymEngine13ComplexDoubleC1ESt7complexIdE
libsymengine.so.0.6:_ZN9SymEngine13ComplexDoubleC2ESt7complexIdE
libsymengine.so.0.6:_ZN9SymEngine13Dirichlet_etaC1ERKNS_3RCPIKNS_5BasicEEE
libsymengine.so.0.6:_ZN9SymEngine13Dirichlet_etaC2ERKNS_3RCPIKNS_5BasicEEE
libsymengine.so.0.6:_ZN9SymEngine13JSCodePrinter10_print_powERNSt7__cxx1119basic_ostringstreamIcSt11char_traitsIcESaIcEEERKNS_3RCPIKNS_5BasicEEESD_
libsymengine.so.0.6:_ZN9SymEngine13JSCodePrinter6bvisitERKNS_3AbsE
libsymengine.so.0.6:_ZN9SymEngine13JSCodePrinter6bvisitERKNS_3CosE
libsymengine.so.0.6:_ZN9SymEngine13JSCodePrinter6bvisitERKNS_3MaxE
libsymengine.so.0.6:_ZN9SymEngine13JSCodePrinter6bvisitERKNS_3MinE
libsymengine.so.0.6:_ZN9SymEngine13JSCodePrinter6bvisitERKNS_3SinE
libsymengine.so.0.6:_ZN9SymEngine13JSCodePrinter6bvisitERKNS_8ConstantE
libsymengine.so.0.6:_ZN9SymEngine13MathMLPrinter5applyB5cxx11ERKNS_5BasicE
libsymengine.so.0.6:_ZN9SymEngine13MathMLPrinter6bvisitERKNS_10ComplementE
libsymengine.so.0.6:_ZN9SymEngine13MathMLPrinter6bvisitERKNS_10DerivativeE
libsymengine.so.0.6:_ZN9SymEngine13MathMLPrinter6bvisitERKNS_10RealDoubleE
libsymengine.so.0.6:_ZN9SymEngine13MathMLPrinter6bvisitERKNS_10UnequalityE
libsymengine.so.0.6:_ZN9SymEngine13MathMLPrinter6bvisitERKNS_11BooleanAtomE
libsymengine.so.0.6:_ZN9SymEngine13MathMLPrinter6bvisitERKNS_11ComplexBaseE
libsymengine.so.0.6:_ZN9SymEngine13MathMLPrinter6bvisitERKNS_12ConditionSetE
libsymengine.so.0.6:_ZN9SymEngine13MathMLPrinter6bvisitERKNS_14FunctionSymbolE
libsymengine.so.0.6:_ZN9SymEngine13MathMLPrinter6bvisitERKNS_14StrictLessThanE
libsymengine.so.0.6:_ZN9SymEngine13MathMLPrinter6bvisitERKNS_2OrE
libsymengine.so.0.6:_ZN9SymEngine13MathMLPrinter6bvisitERKNS_3AddE
libsymengine.so.0.6:_ZN9SymEngine13MathMLPrinter6bvisitERKNS_3AndE
libsymengine.so.0.6:_ZN9SymEngine13MathMLPrinter6bvisitERKNS_3MulE
libsymengine.so.0.6:_ZN9SymEngine13MathMLPrinter6bvisitERKNS_3NotE
libsymengine.so.0.6:_ZN9SymEngine13MathMLPrinter6bvisitERKNS_3PowE
libsymengine.so.0.6:_ZN9SymEngine13MathMLPrinter6bvisitERKNS_3XorE
libsymengine.so.0.6:_ZN9SymEngine13MathMLPrinter6bvisitERKNS_5BasicE
libsymengine.so.0.6:_ZN9SymEngine13MathMLPrinter6bvisitERKNS_5UnionE
libsymengine.so.0.6:_ZN9SymEngine13MathMLPrinter6bvisitERKNS_6SymbolE
libsymengine.so.0.6:_ZN9SymEngine13MathMLPrinter6bvisitERKNS_7IntegerE
libsymengine.so.0.6:_ZN9SymEngine13MathMLPrinter6bvisitERKNS_8ConstantE
libsymengine.so.0.6:_ZN9SymEngine13MathMLPrinter6bvisitERKNS_8ContainsE
libsymengine.so.0.6:_ZN9SymEngine13MathMLPrinter6bvisitERKNS_8EmptySetE
libsymengine.so.0.6:_ZN9SymEngine13MathMLPrinter6bvisitERKNS_8EqualityE
libsymengine.so.0.6:_ZN9SymEngine13MathMLPrinter6bvisitERKNS_8FunctionE
libsymengine.so.0.6:_ZN9SymEngine13MathMLPrinter6bvisitERKNS_8ImageSetE
libsymengine.so.0.6:_ZN9SymEngine13MathMLPrinter6bvisitERKNS_8IntervalE
libsymengine.so.0.6:_ZN9SymEngine13MathMLPrinter6bvisitERKNS_8LessThanE
libsymengine.so.0.6:_ZN9SymEngine13MathMLPrinter6bvisitERKNS_8RationalE
libsymengine.so.0.6:_ZN9SymEngine13MathMLPrinter6bvisitERKNS_8RealMPFRE
libsymengine.so.0.6:_ZN9SymEngine13MathMLPrinter6bvisitERKNS_9FiniteSetE
libsymengine.so.0.6:_ZN9SymEngine13MathMLPrinter6bvisitERKNS_9PiecewiseE
libsymengine.so.0.6:_ZN9SymEngine13det_berkowitzERKNS_11DenseMatrixE
libsymengine.so.0.6:_ZN9SymEngine13dirichlet_etaERKNS_3RCPIKNS_5BasicEEE
libsymengine.so.0.6:_ZN9SymEngine13divides_upolyERKNS_8UIntPolyES2_RKNS_3PtrINS_3RCPIS1_EEEE
libsymengine.so.0.6:_ZN9SymEngine13divides_upolyERKNS_8URatPolyES2_RKNS_3PtrINS_3RCPIS1_EEEE
libsymengine.so.0.6:_ZN9SymEngine13evalf_numericERKNS_5BasicEmb
libsymengine.so.0.6:_ZN9SymEngine13invertComplexERKNS_3RCPIKNS_5BasicEEERKNS0_IKNS_3SetEEERKNS0_IKNS_6SymbolEEERKNS0_IKNS_5DummyEEESA_
libsymengine.so.0.6:_ZN9SymEngine13perfect_powerERKNS_7IntegerE
libsymengine.so.0.6:_ZN9SymEngine13powermod_listERSt6vectorINS_3RCPIKNS_7IntegerEEESaIS4_EERKS4_RKNS1_IKNS_6NumberEEES9_
libsymengine.so.0.6:_ZN9SymEngine13prime_factorsERSt6vectorINS_3RCPIKNS_7IntegerEEESaIS4_EERS3_
libsymengine.so.0.6:_ZN9SymEngine13trig_simplifyERKNS_3RCPIKNS_5BasicEEEjbbRKNS_3PtrIS3_EERiSA_
libsymengine.so.0.6:_ZN9SymEngine14C89CodePrinter10_print_powERNSt7__cxx1119basic_ostringstreamIcSt11char_traitsIcESaIcEEERKNS_3RCPIKNS_5BasicEEESD_
libsymengine.so.0.6:_ZN9SymEngine14C89CodePrinter6bvisitERKNS_5InftyE
libsymengine.so.0.6:_ZN9SymEngine14C99CodePrinter10_print_powERNSt7__cxx1119basic_ostringstreamIcSt11char_traitsIcESaIcEEERKNS_3RCPIKNS_5BasicEEESD_
libsymengine.so.0.6:_ZN9SymEngine14C99CodePrinter6bvisitERKNS_5GammaE
libsymengine.so.0.6:_ZN9SymEngine14C99CodePrinter6bvisitERKNS_5InftyE
libsymengine.so.0.6:_ZN9SymEngine14C99CodePrinter6bvisitERKNS_8LogGammaE
libsymengine.so.0.6:_ZN9SymEngine14FunctionSymbolC1ENSt7__cxx1112basic_stringIcSt11char_traitsIcESaIcEEERKNS_3RCPIKNS_5BasicEEE
libsymengine.so.0.6:_ZN9SymEngine14FunctionSymbolC1ENSt7__cxx1112basic_stringIcSt11char_traitsIcESaIcEEERKSt6vectorINS_3RCPIKNS_5BasicEEESaISB_EE
libsymengine.so.0.6:_ZN9SymEngine14FunctionSymbolC2ENSt7__cxx1112basic_stringIcSt11char_traitsIcESaIcEEERKNS_3RCPIKNS_5BasicEEE
libsymengine.so.0.6:_ZN9SymEngine14FunctionSymbolC2ENSt7__cxx1112basic_stringIcSt11char_traitsIcESaIcEEERKSt6vectorINS_3RCPIKNS_5BasicEEESaISB_EE
libsymengine.so.0.6:_ZN9SymEngine14KroneckerDeltaC1ERKNS_3RCPIKNS_5BasicEEES6_
libsymengine.so.0.6:_ZN9SymEngine14KroneckerDeltaC2ERKNS_3RCPIKNS_5BasicEEES6_
libsymengine.so.0.6:_ZN9SymEngine14StrictLessThanC1ERKNS_3RCPIKNS_5BasicEEES6_
libsymengine.so.0.6:_ZN9SymEngine14StrictLessThanC2ERKNS_3RCPIKNS_5BasicEEES6_
libsymengine.so.0.6:_ZN9SymEngine14as_numer_denomERKNS_3RCPIKNS_5BasicEEERKNS_3PtrIS3_EES9_
libsymengine.so.0.6:_ZN9SymEngine14complex_doubleESt7complexIdE
libsymengine.so.0.6:_ZN9SymEngine14csr_scale_rowsERNS_9CSRMatrixERKNS_11DenseMatrixE
libsymengine.so.0.6:_ZN9SymEngine14diagonal_solveERKNS_11DenseMatrixES2_RS0_
libsymengine.so.0.6:_ZN9SymEngine14inverse_lookupERSt13unordered_mapINS_3RCPIKNS_5BasicEEES4_NS_12RCPBasicHashENS_13RCPBasicKeyEqESaISt4pairIKS4_S4_EEERS8_RKNS_3PtrIS4_EE
libsymengine.so.0.6:_ZN9SymEngine14is_nth_residueERKNS_7IntegerES2_S2_
libsymengine.so.0.6:_ZN9SymEngine14make_set_unionERKSt3setINS_3RCPIKNS_3SetEEENS_15RCPBasicKeyLessESaIS4_EE
libsymengine.so.0.6:_ZN9SymEngine14perfect_squareERKNS_7IntegerE
libsymengine.so.0.6:_ZN9SymEngine14primitive_rootERKNS_3PtrINS_3RCPIKNS_7IntegerEEEEERS3_
libsymengine.so.0.6:_ZN9SymEngine14probab_prime_pERKNS_7IntegerEj
libsymengine.so.0.6:_ZN9SymEngine14quotient_mod_fERKNS_3PtrINS_3RCPIKNS_7IntegerEEEEES7_RS3_S8_
libsymengine.so.0.6:_ZN9SymEngine14rewrite_as_expERKNS_3RCPIKNS_5BasicEEE
libsymengine.so.0.6:_ZN9SymEngine14series_invfuncERKNS_3RCPIKNS_5BasicEEERKNS0_IKNS_6SymbolEEEj
libsymengine.so.0.6:_ZN9SymEngine14set_complementERKNS_3RCPIKNS_3SetEEES5_
libsymengine.so.0.6:_ZN9SymEngine14solve_rationalERKNS_3RCPIKNS_5BasicEEERKNS0_IKNS_6SymbolEEERKNS0_IKNS_3SetEEE
libsymengine.so.0.6:_ZN9SymEngine15CountOpsVisitor5applyERKNS_5BasicE
libsymengine.so.0.6:_ZN9SymEngine15CountOpsVisitor6bvisitERKNS_11ComplexBaseE
libsymengine.so.0.6:_ZN9SymEngine15CountOpsVisitor6bvisitERKNS_3AddE
libsymengine.so.0.6:_ZN9SymEngine15CountOpsVisitor6bvisitERKNS_3MulE
libsymengine.so.0.6:_ZN9SymEngine15CountOpsVisitor6bvisitERKNS_3PowE
libsymengine.so.0.6:_ZN9SymEngine15CountOpsVisitor6bvisitERKNS_5BasicE
libsymengine.so.0.6:_ZN9SymEngine15CountOpsVisitor6bvisitERKNS_6NumberE
libsymengine.so.0.6:_ZN9SymEngine15CountOpsVisitor6bvisitERKNS_6SymbolE
libsymengine.so.0.6:_ZN9SymEngine15CountOpsVisitor6bvisitERKNS_8ConstantE
libsymengine.so.0.6:_ZN9SymEngine15FunctionWrapperC1ENSt7__cxx1112basic_stringIcSt11char_traitsIcESaIcEEERKNS_3RCPIKNS_5BasicEEE
libsymengine.so.0.6:_ZN9SymEngine15FunctionWrapperC1ENSt7__cxx1112basic_stringIcSt11char_traitsIcESaIcEEERKSt6vectorINS_3RCPIKNS_5BasicEEESaISB_EE
libsymengine.so.0.6:_ZN9SymEngine15FunctionWrapperC2ENSt7__cxx1112basic_stringIcSt11char_traitsIcESaIcEEERKNS_3RCPIKNS_5BasicEEE
libsymengine.so.0.6:_ZN9SymEngine15FunctionWrapperC2ENSt7__cxx1112basic_stringIcSt11char_traitsIcESaIcEEERKSt6vectorINS_3RCPIKNS_5BasicEEESaISB_EE
libsymengine.so.0.6:_ZN9SymEngine15GaloisFieldDict3mulERKS0_S2_
libsymengine.so.0.6:_ZN9SymEngine15GaloisFieldDict6negateEv
libsymengine.so.0.6:_ZN9SymEngine15GaloisFieldDict8from_vecERKSt6vectorINS_11mpz_wrapperESaIS2_EERKS2_
libsymengine.so.0.6:_ZN9SymEngine15GaloisFieldDict9gf_istripEv
libsymengine.so.0.6:_ZN9SymEngine15GaloisFieldDictC1ERKNS_11mpz_wrapperES3_
libsymengine.so.0.6:_ZN9SymEngine15GaloisFieldDictC1ERKSt3mapIjNS_11mpz_wrapperESt4lessIjESaISt4pairIKjS2_EEERKS2_
libsymengine.so.0.6:_ZN9SymEngine15GaloisFieldDictC1ERKiRKNS_11mpz_wrapperE
libsymengine.so.0.6:_ZN9SymEngine15GaloisFieldDictC2ERKNS_11mpz_wrapperES3_
libsymengine.so.0.6:_ZN9SymEngine15GaloisFieldDictC2ERKSt3mapIjNS_11mpz_wrapperESt4lessIjESaISt4pairIKjS2_EEERKS2_
libsymengine.so.0.6:_ZN9SymEngine15GaloisFieldDictC2ERKiRKNS_11mpz_wrapperE
libsymengine.so.0.6:_ZN9SymEngine15JuliaStrPrinter10_print_powERNSt7__cxx1119basic_ostringstreamIcSt11char_traitsIcESaIcEEERKNS_3RCPIKNS_5BasicEEESD_
libsymengine.so.0.6:_ZN9SymEngine15JuliaStrPrinter15get_imag_symbolB5cxx11Ev
libsymengine.so.0.6:_ZN9SymEngine15JuliaStrPrinter6bvisitERKNS_3NaNE
libsymengine.so.0.6:_ZN9SymEngine15JuliaStrPrinter6bvisitERKNS_5InftyE
libsymengine.so.0.6:_ZN9SymEngine15JuliaStrPrinter6bvisitERKNS_8ConstantE
libsymengine.so.0.6:_ZN9SymEngine15_find_gens_polyERKNS_3RCPIKNS_5BasicEEE
libsymengine.so.0.6:_ZN9SymEngine15add_dense_denseERKNS_11DenseMatrixES2_RS0_
libsymengine.so.0.6:_ZN9SymEngine15eval_levicivitaERKSt6vectorINS_3RCPIKNS_5BasicEEESaIS4_EEi
libsymengine.so.0.6:_ZN9SymEngine15function_symbolENSt7__cxx1112basic_stringIcSt11char_traitsIcESaIcEEERKNS_3RCPIKNS_5BasicEEE
libsymengine.so.0.6:_ZN9SymEngine15function_symbolENSt7__cxx1112basic_stringIcSt11char_traitsIcESaIcEEERKSt6vectorINS_3RCPIKNS_5BasicEEESaISA_EE
libsymengine.so.0.6:_ZN9SymEngine15homogeneous_ldeERSt6vectorINS_11DenseMatrixESaIS1_EERKS1_
libsymengine.so.0.6:_ZN9SymEngine15is_quad_residueERKNS_7IntegerES2_
libsymengine.so.0.6:_ZN9SymEngine15kronecker_deltaERKNS_3RCPIKNS_5BasicEEES5_
libsymengine.so.0.6:_ZN9SymEngine15linsolve_helperERKNS_11DenseMatrixES2_
libsymengine.so.0.6:_ZN9SymEngine15mul_dense_denseERKNS_11DenseMatrixES2_RS0_
libsymengine.so.0.6:_ZN9SymEngine15submatrix_denseERKNS_11DenseMatrixERS0_jjjjjj
libsymengine.so.0.6:_ZN9SymEngine15transpose_denseERKNS_11DenseMatrixERS0_
libsymengine.so.0.6:_ZN9SymEngine16TransformVisitor5applyERKNS_3RCPIKNS_5BasicEEE
libsymengine.so.0.6:_ZN9SymEngine16TransformVisitor6bvisitERKNS_14OneArgFunctionE
libsymengine.so.0.6:_ZN9SymEngine16TransformVisitor6bvisitERKNS_16MultiArgFunctionE
libsymengine.so.0.6:_ZN9SymEngine16TransformVisitor6bvisitERKNS_3AddE
libsymengine.so.0.6:_ZN9SymEngine16TransformVisitor6bvisitERKNS_3MulE
libsymengine.so.0.6:_ZN9SymEngine16TransformVisitor6bvisitERKNS_3PowE
libsymengine.so.0.6:_ZN9SymEngine16TransformVisitor6bvisitERKNS_5BasicE
libsymengine.so.0.6:_ZN9SymEngine16UnivariateSeries3cosERKNS_10ExpressionE
libsymengine.so.0.6:_ZN9SymEngine16UnivariateSeries3expERKNS_10ExpressionE
libsymengine.so.0.6:_ZN9SymEngine16UnivariateSeries3logERKNS_10ExpressionE
libsymengine.so.0.6:_ZN9SymEngine16UnivariateSeries3mulERKNS_9UExprDictES3_j
libsymengine.so.0.6:_ZN9SymEngine16UnivariateSeries3powERKNS_9UExprDictEij
libsymengine.so.0.6:_ZN9SymEngine16UnivariateSeries3sinERKNS_10ExpressionE
libsymengine.so.0.6:_ZN9SymEngine16UnivariateSeries3tanERKNS_10ExpressionE
libsymengine.so.0.6:_ZN9SymEngine16UnivariateSeries3varERKNSt7__cxx1112basic_stringIcSt11char_traitsIcESaIcEEE
libsymengine.so.0.6:_ZN9SymEngine16UnivariateSeries4acosERKNS_10ExpressionE
libsymengine.so.0.6:_ZN9SymEngine16UnivariateSeries4asinERKNS_10ExpressionE
libsymengine.so.0.6:_ZN9SymEngine16UnivariateSeries4atanERKNS_10ExpressionE
libsymengine.so.0.6:_ZN9SymEngine16UnivariateSeries4coshERKNS_10ExpressionE
libsymengine.so.0.6:_ZN9SymEngine16UnivariateSeries4diffERKNS_9UExprDictES3_
libsymengine.so.0.6:_ZN9SymEngine16UnivariateSeries4rootERNS_10ExpressionEj
libsymengine.so.0.6:_ZN9SymEngine16UnivariateSeries4sinhERKNS_10ExpressionE
libsymengine.so.0.6:_ZN9SymEngine16UnivariateSeries4subsERKNS_9UExprDictES3_S3_j
libsymengine.so.0.6:_ZN9SymEngine16UnivariateSeries4tanhERKNS_10ExpressionE
libsymengine.so.0.6:_ZN9SymEngine16UnivariateSeries5asinhERKNS_10ExpressionE
libsymengine.so.0.6:_ZN9SymEngine16UnivariateSeries5atanhERKNS_10ExpressionE
libsymengine.so.0.6:_ZN9SymEngine16UnivariateSeries6seriesERKNS_3RCPIKNS_5BasicEEERKNSt7__cxx1112basic_stringIcSt11char_traitsIcESaIcEEEj
libsymengine.so.0.6:_ZN9SymEngine16UnivariateSeries7convertERKNS_5BasicE
libsymengine.so.0.6:_ZN9SymEngine16UnivariateSeries7find_cfERKNS_9UExprDictES3_i
libsymengine.so.0.6:_ZN9SymEngine16UnivariateSeries7ldegreeERKNS_9UExprDictE
libsymengine.so.0.6:_ZN9SymEngine16UnivariateSeries9integrateERKNS_9UExprDictES3_
libsymengine.so.0.6:_ZN9SymEngine16add_dense_scalarERKNS_11DenseMatrixERKNS_3RCPIKNS_5BasicEEERS0_
libsymengine.so.0.6:_ZN9SymEngine16csr_matmat_pass1ERKNS_9CSRMatrixES2_RS0_
libsymengine.so.0.6:_ZN9SymEngine16csr_matmat_pass2ERKNS_9CSRMatrixES2_RS0_
libsymengine.so.0.6:_ZN9SymEngine16fraction_free_LUERKNS_11DenseMatrixERS0_
libsymengine.so.0.6:_ZN9SymEngine16gamma_multiple_2ERKNS_3RCPIKNS_5BasicEEE
libsymengine.so.0.6:_ZN9SymEngine16get_set_from_vecERKSt6vectorINS_3RCPIKNS_6SymbolEEESaIS4_EE
libsymengine.so.0.6:_ZN9SymEngine16get_vec_from_setERKSt3setINS_3RCPIKNS_7BooleanEEENS_15RCPBasicKeyLessESaIS4_EE
libsymengine.so.0.6:_ZN9SymEngine16init_eval_doubleEv
libsymengine.so.0.6:_ZN9SymEngine16mul_dense_scalarERKNS_11DenseMatrixERKNS_3RCPIKNS_5BasicEEERS0_
libsymengine.so.0.6:_ZN9SymEngine16nthroot_mod_listERSt6vectorINS_3RCPIKNS_7IntegerEEESaIS4_EERKS4_S9_S9_
libsymengine.so.0.6:_ZN9SymEngine16pivoted_LU_solveERKNS_11DenseMatrixES2_RS0_
libsymengine.so.0.6:_ZN9SymEngine16set_intersectionERKSt3setINS_3RCPIKNS_3SetEEENS_15RCPBasicKeyLessESaIS4_EE
libsymengine.so.0.6:_ZN9SymEngine16solve_poly_cubicERKSt6vectorINS_3RCPIKNS_5BasicEEESaIS4_EERKNS1_IKNS_3SetEEE
libsymengine.so.0.6:_ZN9SymEngine17add_to_sorted_vecERSt6vectorIjSaIjEEj
libsymengine.so.0.6:_ZN9SymEngine17back_substitutionERKNS_11DenseMatrixES2_RS0_
libsymengine.so.0.6:_ZN9SymEngine17csr_scale_columnsERNS_9CSRMatrixERKNS_11DenseMatrixE
libsymengine.so.0.6:_ZN9SymEngine17fraction_free_LDUERKNS_11DenseMatrixERS0_S3_S3_
libsymengine.so.0.6:_ZN9SymEngine17hash_combine_implERmPK13__mpfr_struct
libsymengine.so.0.6:_ZN9SymEngine17match_common_argsERKNSt7__cxx1112basic_stringIcSt11char_traitsIcESaIcEEERKSt6vectorINS_3RCPIKNS_5BasicEEESaISC_EERSt13unordered_mapISC_SC_NS_12RCPBasicHashENS_13RCPBasicKeyEqESaISt4pairIKSC_SC_EEE
libsymengine.so.0.6:_ZN9SymEngine17row_add_row_denseERNS_11DenseMatrixEjjRNS_3RCPIKNS_5BasicEEE
libsymengine.so.0.6:_ZN9SymEngine17solve_poly_linearERKSt6vectorINS_3RCPIKNS_5BasicEEESaIS4_EERKNS1_IKNS_3SetEEE
libsymengine.so.0.6:_ZN9SymEngine17vec_basic_eq_permERKSt6vectorINS_3RCPIKNS_5BasicEEESaIS4_EES8_
libsymengine.so.0.6:_ZN9SymEngine18gamma_positive_intERKNS_3RCPIKNS_5BasicEEE
libsymengine.so.0.6:_ZN9SymEngine18inverse_pivoted_LUERKNS_11DenseMatrixERS0_
libsymengine.so.0.6:_ZN9SymEngine18is_symmetric_denseERKNS_11DenseMatrixE
libsymengine.so.0.6:_ZN9SymEngine18preorder_traversalERKNS_5BasicERNS_7VisitorE
libsymengine.so.0.6:_ZN9SymEngine18quadratic_residuesERKNS_7IntegerE
libsymengine.so.0.6:_ZN9SymEngine18row_exchange_denseERNS_11DenseMatrixEjj
libsymengine.so.0.6:_ZN9SymEngine18solve_poly_quarticERKSt6vectorINS_3RCPIKNS_5BasicEEESaIS4_EERKNS1_IKNS_3SetEEE
libsymengine.so.0.6:_ZN9SymEngine19_find_gens_poly_powERKNS_3RCPIKNS_5BasicEEES5_
libsymengine.so.0.6:_ZN9SymEngine19could_extract_minusERKNS_5BasicE
libsymengine.so.0.6:_ZN9SymEngine19eval_complex_doubleERKNS_5BasicE
libsymengine.so.0.6:_ZN9SymEngine19postorder_traversalERKNS_5BasicERNS_7VisitorE
libsymengine.so.0.6:_ZN9SymEngine19primitive_root_listERSt6vectorINS_3RCPIKNS_7IntegerEEESaIS4_EERS3_
libsymengine.so.0.6:_ZN9SymEngine20factor_lehman_methodERKNS_3PtrINS_3RCPIKNS_7IntegerEEEEERS3_
libsymengine.so.0.6:_ZN9SymEngine20forward_substitutionERKNS_11DenseMatrixES2_RS0_
libsymengine.so.0.6:_ZN9SymEngine20inverse_gauss_jordanERKNS_11DenseMatrixERS0_
libsymengine.so.0.6:_ZN9SymEngine20multiplicative_orderERKNS_3PtrINS_3RCPIKNS_7IntegerEEEEERKS4_S9_
libsymengine.so.0.6:_ZN9SymEngine20print_rational_classERKNS_11mpq_wrapperERNSt7__cxx1119basic_ostringstreamIcSt11char_traitsIcESaIcEEE
libsymengine.so.0.6:_ZN9SymEngine20row_mul_scalar_denseERNS_11DenseMatrixEjRNS_3RCPIKNS_5BasicEEE
libsymengine.so.0.6:_ZN9SymEngine20solve_poly_quadraticERKSt6vectorINS_3RCPIKNS_5BasicEEESaIS4_EERKNS1_IKNS_3SetEEE
libsymengine.so.0.6:_ZN9SymEngine20trig_has_basic_shiftERKNS_3RCPIKNS_5BasicEEE
libsymengine.so.0.6:_ZN9SymEngine21column_exchange_denseERNS_11DenseMatrixEjj
libsymengine.so.0.6:_ZN9SymEngine21factor_trial_divisionERKNS_3PtrINS_3RCPIKNS_7IntegerEEEEERS3_
libsymengine.so.0.6:_ZN9SymEngine21linear_eqns_to_matrixERKSt6vectorINS_3RCPIKNS_5BasicEEESaIS4_EERKS0_INS1_IKNS_6SymbolEEESaISB_EE
libsymengine.so.0.6:_ZN9SymEngine21set_complement_helperERKNS_3RCPIKNS_3SetEEES5_
libsymengine.so.0.6:_ZN9SymEngine21solve_poly_heuristicsERKSt6vectorINS_3RCPIKNS_5BasicEEESaIS4_EERKNS1_IKNS_3SetEEE
libsymengine.so.0.6:_ZN9SymEngine22fraction_free_LU_solveERKNS_11DenseMatrixES2_RS0_
libsymengine.so.0.6:_ZN9SymEngine22init_str_printer_namesB5cxx11Ev
libsymengine.so.0.6:_ZN9SymEngine23csr_binop_csr_canonicalERKNS_9CSRMatrixES2_RS0_RFNS_3RCPIKNS_5BasicEEERKS7_S9_E
libsymengine.so.0.6:_ZN9SymEngine23preorder_traversal_stopERKNS_5BasicERNS_11StopVisitorE
libsymengine.so.0.6:_ZN9SymEngine23print_stack_on_segfaultEv
libsymengine.so.0.6:_ZN9SymEngine24init_latex_printer_namesB5cxx11Ev
libsymengine.so.0.6:_ZN9SymEngine24inverse_fraction_free_LUERKNS_11DenseMatrixERS0_
libsymengine.so.0.6:_ZN9SymEngine24multinomial_coefficientsEjjRSt3mapISt6vectorIjSaIjEEySt4lessIS3_ESaISt4pairIKS3_yEEE
libsymengine.so.0.6:_ZN9SymEngine24needs_symbolic_constantsERKNS_3RCPIKNS_5BasicEEERKNS0_IKNS_6SymbolEEE
libsymengine.so.0.6:_ZN9SymEngine24postorder_traversal_stopERKNS_5BasicERNS_11StopVisitorE
libsymengine.so.0.6:_ZN9SymEngine24reduced_row_echelon_formERKNS_11DenseMatrixERS0_RSt6vectorIjSaIjEEb
libsymengine.so.0.6:_ZN9SymEngine25factor_pollard_pm1_methodERKNS_3PtrINS_3RCPIKNS_7IntegerEEEEERS3_jj
libsymengine.so.0.6:_ZN9SymEngine25factor_pollard_rho_methodERKNS_3PtrINS_3RCPIKNS_7IntegerEEEEERS3_j
libsymengine.so.0.6:_ZN9SymEngine25init_mathml_printer_namesB5cxx11Ev
libsymengine.so.0.6:_ZN9SymEngine26is_a_LinearArgTrigEquationERKNS_5BasicERKNS_6SymbolE
libsymengine.so.0.6:_ZN9SymEngine27_is_nthroot_mod_prime_powerERKNS_11mpz_wrapperES2_S2_j
libsymengine.so.0.6:_ZN9SymEngine27eval_double_single_dispatchERKNS_5BasicE
libsymengine.so.0.6:_ZN9SymEngine27eval_double_visitor_patternERKNS_5BasicE
libsymengine.so.0.6:_ZN9SymEngine27prime_factor_multiplicitiesERSt3mapINS_3RCPIKNS_7IntegerEEEjNS_17RCPIntegerKeyLessESaISt4pairIKS4_jEEERS3_
libsymengine.so.0.6:_ZN9SymEngine28multinomial_coefficients_mpzEjjRSt3mapISt6vectorIjSaIjEENS_11mpz_wrapperESt4lessIS3_ESaISt4pairIKS3_S4_EEE
libsymengine.so.0.6:_ZN9SymEngine28pivoted_gaussian_eliminationERKNS_11DenseMatrixERS0_RSt6vectorISt4pairIiiESaIS6_EE
libsymengine.so.0.6:_ZN9SymEngine29generate_fdiff_weights_vectorERKSt6vectorINS_3RCPIKNS_5BasicEEESaIS4_EEjS4_
libsymengine.so.0.6:_ZN9SymEngine29preorder_traversal_local_stopERKNS_5BasicERNS_16LocalStopVisitorE
libsymengine.so.0.6:_ZN9SymEngine2EqERKNS_3RCPIKNS_5BasicEEE
libsymengine.so.0.6:_ZN9SymEngine2EqERKNS_3RCPIKNS_5BasicEEES5_
libsymengine.so.0.6:_ZN9SymEngine2GeERKNS_3RCPIKNS_5BasicEEES5_
libsymengine.so.0.6:_ZN9SymEngine2GtERKNS_3RCPIKNS_5BasicEEES5_
libsymengine.so.0.6:_ZN9SymEngine2LUERKNS_11DenseMatrixERS0_S3_
libsymengine.so.0.6:_ZN9SymEngine2LeERKNS_3RCPIKNS_5BasicEEES5_
libsymengine.so.0.6:_ZN9SymEngine2LtERKNS_3RCPIKNS_5BasicEEES5_
libsymengine.so.0.6:_ZN9SymEngine2NeERKNS_3RCPIKNS_5BasicEEES5_
libsymengine.so.0.6:_ZN9SymEngine2Or12is_canonicalERKSt3setINS_3RCPIKNS_7BooleanEEENS_15RCPBasicKeyLessESaIS5_EE
libsymengine.so.0.6:_ZN9SymEngine2OrC1ERKSt3setINS_3RCPIKNS_7BooleanEEENS_15RCPBasicKeyLessESaIS5_EE
libsymengine.so.0.6:_ZN9SymEngine2OrC2ERKSt3setINS_3RCPIKNS_7BooleanEEENS_15RCPBasicKeyLessESaIS5_EE
libsymengine.so.0.6:_ZN9SymEngine2QRERKNS_11DenseMatrixERS0_S3_
libsymengine.so.0.6:_ZN9SymEngine32fraction_free_gauss_jordan_solveERKNS_11DenseMatrixES2_RS0_
libsymengine.so.0.6:_ZN9SymEngine32pivoted_gauss_jordan_eliminationERKNS_11DenseMatrixERS0_RSt6vectorISt4pairIiiESaIS6_EE
libsymengine.so.0.6:_ZN9SymEngine34fraction_free_gaussian_eliminationERKNS_11DenseMatrixERS0_
libsymengine.so.0.6:_ZN9SymEngine38fraction_free_gauss_jordan_eliminationERKNS_11DenseMatrixERS0_
libsymengine.so.0.6:_ZN9SymEngine3AbsC1ERKNS_3RCPIKNS_5BasicEEE
libsymengine.so.0.6:_ZN9SymEngine3AbsC2ERKNS_3RCPIKNS_5BasicEEE
libsymengine.so.0.6:_ZN9SymEngine3Add12as_coef_termERKNS_3RCPIKNS_5BasicEEERKNS_3PtrINS1_IKNS_6NumberEEEEERKNS7_IS4_EE
libsymengine.so.0.6:_ZN9SymEngine3Add13dict_add_termERSt13unordered_mapINS_3RCPIKNS_5BasicEEENS2_IKNS_6NumberEEENS_12RCPBasicHashENS_13RCPBasicKeyEqESaISt4pairIKS5_S8_EEERKS8_RSC_
libsymengine.so.0.6:_ZN9SymEngine3Add18coef_dict_add_termERKNS_3PtrINS_3RCPIKNS_6NumberEEEEERSt13unordered_mapINS2_IKNS_5BasicEEES5_NS_12RCPBasicHashENS_13RCPBasicKeyEqESaISt4pairIKSC_S5_EEERKS5_RSG_
libsymengine.so.0.6:_ZN9SymEngine3Add9from_dictERKNS_3RCPIKNS_6NumberEEEOSt13unordered_mapINS1_IKNS_5BasicEEES4_NS_12RCPBasicHashENS_13RCPBasicKeyEqESaISt4pairIKSA_S4_EEE
libsymengine.so.0.6:_ZN9SymEngine3AddC1ERKNS_3RCPIKNS_6NumberEEEOSt13unordered_mapINS1_IKNS_5BasicEEES4_NS_12RCPBasicHashENS_13RCPBasicKeyEqESaISt4pairIKSA_S4_EEE
libsymengine.so.0.6:_ZN9SymEngine3AddC2ERKNS_3RCPIKNS_6NumberEEEOSt13unordered_mapINS1_IKNS_5BasicEEES4_NS_12RCPBasicHashENS_13RCPBasicKeyEqESaISt4pairIKSA_S4_EEE
libsymengine.so.0.6:_ZN9SymEngine3And12is_canonicalERKSt3setINS_3RCPIKNS_7BooleanEEENS_15RCPBasicKeyLessESaIS5_EE
libsymengine.so.0.6:_ZN9SymEngine3AndC1ERKSt3setINS_3RCPIKNS_7BooleanEEENS_15RCPBasicKeyLessESaIS5_EE
libsymengine.so.0.6:_ZN9SymEngine3AndC2ERKSt3setINS_3RCPIKNS_7BooleanEEENS_15RCPBasicKeyLessESaIS5_EE
libsymengine.so.0.6:_ZN9SymEngine3CosC1ERKNS_3RCPIKNS_5BasicEEE
libsymengine.so.0.6:_ZN9SymEngine3CosC2ERKNS_3RCPIKNS_5BasicEEE
libsymengine.so.0.6:_ZN9SymEngine3CotC1ERKNS_3RCPIKNS_5BasicEEE
libsymengine.so.0.6:_ZN9SymEngine3CotC2ERKNS_3RCPIKNS_5BasicEEE
libsymengine.so.0.6:_ZN9SymEngine3CscC1ERKNS_3RCPIKNS_5BasicEEE
libsymengine.so.0.6:_ZN9SymEngine3CscC2ERKNS_3RCPIKNS_5BasicEEE
libsymengine.so.0.6:_ZN9SymEngine3LDLERKNS_11DenseMatrixERS0_S3_
libsymengine.so.0.6:_ZN9SymEngine3LogC1ERKNS_3RCPIKNS_5BasicEEE
libsymengine.so.0.6:_ZN9SymEngine3LogC2ERKNS_3RCPIKNS_5BasicEEE
libsymengine.so.0.6:_ZN9SymEngine3MaxC1EOKSt6vectorINS_3RCPIKNS_5BasicEEESaIS5_EE
libsymengine.so.0.6:_ZN9SymEngine3MaxC2EOKSt6vectorINS_3RCPIKNS_5BasicEEESaIS5_EE
libsymengine.so.0.6:_ZN9SymEngine3MinC1EOKSt6vectorINS_3RCPIKNS_5BasicEEESaIS5_EE
libsymengine.so.0.6:_ZN9SymEngine3MinC2EOKSt6vectorINS_3RCPIKNS_5BasicEEESaIS5_EE
libsymengine.so.0.6:_ZN9SymEngine3Mul11as_base_expERKNS_3RCPIKNS_5BasicEEERKNS_3PtrIS4_EESA_
libsymengine.so.0.6:_ZN9SymEngine3Mul13dict_add_termERSt3mapINS_3RCPIKNS_5BasicEEES5_NS_15RCPBasicKeyLessESaISt4pairIKS5_S5_EEERS8_SD_
libsymengine.so.0.6:_ZN9SymEngine3Mul17dict_add_term_newERKNS_3PtrINS_3RCPIKNS_6NumberEEEEERSt3mapINS2_IKNS_5BasicEEESC_NS_15RCPBasicKeyLessESaISt4pairIKSC_SC_EEERSF_SK_
libsymengine.so.0.6:_ZN9SymEngine3Mul9from_dictERKNS_3RCPIKNS_6NumberEEEOSt3mapINS1_IKNS_5BasicEEESA_NS_15RCPBasicKeyLessESaISt4pairIKSA_SA_EEE
libsymengine.so.0.6:_ZN9SymEngine3MulC1ERKNS_3RCPIKNS_6NumberEEEOSt3mapINS1_IKNS_5BasicEEESA_NS_15RCPBasicKeyLessESaISt4pairIKSA_SA_EEE
libsymengine.so.0.6:_ZN9SymEngine3MulC2ERKNS_3RCPIKNS_6NumberEEEOSt3mapINS1_IKNS_5BasicEEESA_NS_15RCPBasicKeyLessESaISt4pairIKSA_SA_EEE
libsymengine.so.0.6:_ZN9SymEngine3NaNC1Ev
libsymengine.so.0.6:_ZN9SymEngine3NaNC2Ev
libsymengine.so.0.6:_ZN9SymEngine3Not12is_canonicalERKNS_3RCPIKNS_7BooleanEEE
libsymengine.so.0.6:_ZN9SymEngine3NotC1ERKNS_3RCPIKNS_7BooleanEEE
libsymengine.so.0.6:_ZN9SymEngine3NotC2ERKNS_3RCPIKNS_7BooleanEEE
libsymengine.so.0.6:_ZN9SymEngine3PowC1ERKNS_3RCPIKNS_5BasicEEES6_
libsymengine.so.0.6:_ZN9SymEngine3PowC2ERKNS_3RCPIKNS_5BasicEEES6_
libsymengine.so.0.6:_ZN9SymEngine3SecC1ERKNS_3RCPIKNS_5BasicEEE
libsymengine.so.0.6:_ZN9SymEngine3SecC2ERKNS_3RCPIKNS_5BasicEEE
libsymengine.so.0.6:_ZN9SymEngine3SinC1ERKNS_3RCPIKNS_5BasicEEE
libsymengine.so.0.6:_ZN9SymEngine3SinC2ERKNS_3RCPIKNS_5BasicEEE
libsymengine.so.0.6:_ZN9SymEngine3TanC1ERKNS_3RCPIKNS_5BasicEEE
libsymengine.so.0.6:_ZN9SymEngine3TanC2ERKNS_3RCPIKNS_5BasicEEE
libsymengine.so.0.6:_ZN9SymEngine3Xor12is_canonicalERKSt6vectorINS_3RCPIKNS_7BooleanEEESaIS5_EE
libsymengine.so.0.6:_ZN9SymEngine3XorC1ERKSt6vectorINS_3RCPIKNS_7BooleanEEESaIS5_EE
libsymengine.so.0.6:_ZN9SymEngine3XorC2ERKSt6vectorINS_3RCPIKNS_7BooleanEEESaIS5_EE
libsymengine.so.0.6:_ZN9SymEngine3absERKNS_3RCPIKNS_5BasicEEE
libsymengine.so.0.6:_ZN9SymEngine3addERKNS_3RCPIKNS_5BasicEEES5_
libsymengine.so.0.6:_ZN9SymEngine3addERKSt6vectorINS_3RCPIKNS_5BasicEEESaIS4_EE
libsymengine.so.0.6:_ZN9SymEngine3cosERKNS_3RCPIKNS_5BasicEEE
libsymengine.so.0.6:_ZN9SymEngine3cotERKNS_3RCPIKNS_5BasicEEE
libsymengine.so.0.6:_ZN9SymEngine3crtERKNS_3PtrINS_3RCPIKNS_7IntegerEEEEERKSt6vectorIS4_SaIS4_EESC_
libsymengine.so.0.6:_ZN9SymEngine3cscERKNS_3RCPIKNS_5BasicEEE
libsymengine.so.0.6:_ZN9SymEngine3cseERSt6vectorISt4pairINS_3RCPIKNS_5BasicEEES5_ESaIS6_EERS0_IS5_SaIS5_EERKSB_
libsymengine.so.0.6:_ZN9SymEngine3divERKNS_3RCPIKNS_5BasicEEES5_
libsymengine.so.0.6:_ZN9SymEngine3dotERKNS_11DenseMatrixES2_RS0_
libsymengine.so.0.6:_ZN9SymEngine3erfERKNS_3RCPIKNS_5BasicEEE
libsymengine.so.0.6:_ZN9SymEngine3expERKNS_3RCPIKNS_5BasicEEE
libsymengine.so.0.6:_ZN9SymEngine3eyeERNS_11DenseMatrixEi
libsymengine.so.0.6:_ZN9SymEngine3gcdERKNS_7IntegerES2_
libsymengine.so.0.6:_ZN9SymEngine3lcmERKNS_7IntegerES2_
libsymengine.so.0.6:_ZN9SymEngine3logERKNS_3RCPIKNS_5BasicEEE
libsymengine.so.0.6:_ZN9SymEngine3logERKNS_3RCPIKNS_5BasicEEES5_
libsymengine.so.0.6:_ZN9SymEngine3maxERKSt6vectorINS_3RCPIKNS_5BasicEEESaIS4_EE
libsymengine.so.0.6:_ZN9SymEngine3minERKSt6vectorINS_3RCPIKNS_5BasicEEESaIS4_EE
libsymengine.so.0.6:_ZN9SymEngine3modERKNS_7IntegerES2_
libsymengine.so.0.6:_ZN9SymEngine3mulERKNS_3RCPIKNS_5BasicEEES5_
libsymengine.so.0.6:_ZN9SymEngine3mulERKSt6vectorINS_3RCPIKNS_5BasicEEESaIS4_EE
libsymengine.so.0.6:_ZN9SymEngine3negERKNS_3RCPIKNS_5BasicEEE
libsymengine.so.0.6:_ZN9SymEngine3powERKNS_3RCPIKNS_5BasicEEES5_
libsymengine.so.0.6:_ZN9SymEngine3secERKNS_3RCPIKNS_5BasicEEE
libsymengine.so.0.6:_ZN9SymEngine3sinERKNS_3RCPIKNS_5BasicEEE
libsymengine.so.0.6:_ZN9SymEngine3strB5cxx11ERKNS_5BasicE
libsymengine.so.0.6:_ZN9SymEngine3subERKNS_3RCPIKNS_5BasicEEES5_
libsymengine.so.0.6:_ZN9SymEngine3tanERKNS_3RCPIKNS_5BasicEEE
libsymengine.so.0.6:_ZN9SymEngine40fraction_free_gaussian_elimination_solveERKNS_11DenseMatrixES2_RS0_
libsymengine.so.0.6:_ZN9SymEngine42pivoted_fraction_free_gaussian_eliminationERKNS_11DenseMatrixERS0_RSt6vectorISt4pairIiiESaIS6_EE
libsymengine.so.0.6:_ZN9SymEngine46pivoted_fraction_free_gauss_jordan_eliminationERKNS_11DenseMatrixERS0_RSt6vectorISt4pairIiiESaIS6_EE
libsymengine.so.0.6:_ZN9SymEngine4ACosC1ERKNS_3RCPIKNS_5BasicEEE
libsymengine.so.0.6:_ZN9SymEngine4ACosC2ERKNS_3RCPIKNS_5BasicEEE
libsymengine.so.0.6:_ZN9SymEngine4ACotC1ERKNS_3RCPIKNS_5BasicEEE
libsymengine.so.0.6:_ZN9SymEngine4ACotC2ERKNS_3RCPIKNS_5BasicEEE
libsymengine.so.0.6:_ZN9SymEngine4ACscC1ERKNS_3RCPIKNS_5BasicEEE
libsymengine.so.0.6:_ZN9SymEngine4ACscC2ERKNS_3RCPIKNS_5BasicEEE
libsymengine.so.0.6:_ZN9SymEngine4ASecC1ERKNS_3RCPIKNS_5BasicEEE
libsymengine.so.0.6:_ZN9SymEngine4ASecC2ERKNS_3RCPIKNS_5BasicEEE
libsymengine.so.0.6:_ZN9SymEngine4ASinC1ERKNS_3RCPIKNS_5BasicEEE
libsymengine.so.0.6:_ZN9SymEngine4ASinC2ERKNS_3RCPIKNS_5BasicEEE
libsymengine.so.0.6:_ZN9SymEngine4ATanC1ERKNS_3RCPIKNS_5BasicEEE
libsymengine.so.0.6:_ZN9SymEngine4ATanC2ERKNS_3RCPIKNS_5BasicEEE
libsymengine.so.0.6:_ZN9SymEngine4Beta12is_canonicalERKNS_3RCPIKNS_5BasicEEES6_
libsymengine.so.0.6:_ZN9SymEngine4Beta14from_two_basicERKNS_3RCPIKNS_5BasicEEES6_
libsymengine.so.0.6:_ZN9SymEngine4CoshC1ERKNS_3RCPIKNS_5BasicEEE
libsymengine.so.0.6:_ZN9SymEngine4CoshC2ERKNS_3RCPIKNS_5BasicEEE
libsymengine.so.0.6:_ZN9SymEngine4CothC1ERKNS_3RCPIKNS_5BasicEEE
libsymengine.so.0.6:_ZN9SymEngine4CothC2ERKNS_3RCPIKNS_5BasicEEE
libsymengine.so.0.6:_ZN9SymEngine4CschC1ERKNS_3RCPIKNS_5BasicEEE
libsymengine.so.0.6:_ZN9SymEngine4CschC2ERKNS_3RCPIKNS_5BasicEEE
libsymengine.so.0.6:_ZN9SymEngine4SechC1ERKNS_3RCPIKNS_5BasicEEE
libsymengine.so.0.6:_ZN9SymEngine4SechC2ERKNS_3RCPIKNS_5BasicEEE
libsymengine.so.0.6:_ZN9SymEngine4SignC1ERKNS_3RCPIKNS_5BasicEEE
libsymengine.so.0.6:_ZN9SymEngine4SignC2ERKNS_3RCPIKNS_5BasicEEE
libsymengine.so.0.6:_ZN9SymEngine4SinhC1ERKNS_3RCPIKNS_5BasicEEE
libsymengine.so.0.6:_ZN9SymEngine4SinhC2ERKNS_3RCPIKNS_5BasicEEE
libsymengine.so.0.6:_ZN9SymEngine4SubsC1ERKNS_3RCPIKNS_5BasicEEERKSt3mapIS4_S4_NS_15RCPBasicKeyLessESaISt4pairIS5_S4_EEE
libsymengine.so.0.6:_ZN9SymEngine4SubsC2ERKNS_3RCPIKNS_5BasicEEERKSt3mapIS4_S4_NS_15RCPBasicKeyLessESaISt4pairIS5_S4_EEE
libsymengine.so.0.6:_ZN9SymEngine4TanhC1ERKNS_3RCPIKNS_5BasicEEE
libsymengine.so.0.6:_ZN9SymEngine4TanhC2ERKNS_3RCPIKNS_5BasicEEE
libsymengine.so.0.6:_ZN9SymEngine4ZetaC1ERKNS_3RCPIKNS_5BasicEEE
libsymengine.so.0.6:_ZN9SymEngine4ZetaC1ERKNS_3RCPIKNS_5BasicEEES6_
libsymengine.so.0.6:_ZN9SymEngine4ZetaC2ERKNS_3RCPIKNS_5BasicEEE
libsymengine.so.0.6:_ZN9SymEngine4ZetaC2ERKNS_3RCPIKNS_5BasicEEES6_
libsymengine.so.0.6:_ZN9SymEngine4acosERKNS_3RCPIKNS_5BasicEEE
libsymengine.so.0.6:_ZN9SymEngine4acotERKNS_3RCPIKNS_5BasicEEE
libsymengine.so.0.6:_ZN9SymEngine4acscERKNS_3RCPIKNS_5BasicEEE
libsymengine.so.0.6:_ZN9SymEngine4asecERKNS_3RCPIKNS_5BasicEEE
libsymengine.so.0.6:_ZN9SymEngine4asinERKNS_3RCPIKNS_5BasicEEE
libsymengine.so.0.6:_ZN9SymEngine4atanERKNS_3RCPIKNS_5BasicEEE
libsymengine.so.0.6:_ZN9SymEngine4betaERKNS_3RCPIKNS_5BasicEEES5_
libsymengine.so.0.6:_ZN9SymEngine4cbrtERNS_3RCPIKNS_5BasicEEE
libsymengine.so.0.6:_ZN9SymEngine4coshERKNS_3RCPIKNS_5BasicEEE
libsymengine.so.0.6:_ZN9SymEngine4cothERKNS_3RCPIKNS_5BasicEEE
libsymengine.so.0.6:_ZN9SymEngine4cschERKNS_3RCPIKNS_5BasicEEE
libsymengine.so.0.6:_ZN9SymEngine4diagERNS_11DenseMatrixERSt6vectorINS_3RCPIKNS_5BasicEEESaIS6_EEi
libsymengine.so.0.6:_ZN9SymEngine4diffERKNS_11DenseMatrixERKNS_3RCPIKNS_6SymbolEEERS0_b
libsymengine.so.0.6:_ZN9SymEngine4diffERKNS_3RCPIKNS_5BasicEEERKNS0_IKNS_6SymbolEEEb
libsymengine.so.0.6:_ZN9SymEngine4erfcERKNS_3RCPIKNS_5BasicEEE
libsymengine.so.0.6:_ZN9SymEngine4iabsERKNS_7IntegerE
libsymengine.so.0.6:_ZN9SymEngine4onesERNS_11DenseMatrixE
libsymengine.so.0.6:_ZN9SymEngine4sechERKNS_3RCPIKNS_5BasicEEE
libsymengine.so.0.6:_ZN9SymEngine4signERKNS_3RCPIKNS_5BasicEEE
libsymengine.so.0.6:_ZN9SymEngine4sinhERKNS_3RCPIKNS_5BasicEEE
libsymengine.so.0.6:_ZN9SymEngine4sqrtERKNS_3RCPIKNS_5BasicEEE
libsymengine.so.0.6:_ZN9SymEngine4sqrtERNS_3RCPIKNS_5BasicEEE
libsymengine.so.0.6:_ZN9SymEngine4tanhERKNS_3RCPIKNS_5BasicEEE
libsymengine.so.0.6:_ZN9SymEngine4zetaERKNS_3RCPIKNS_5BasicEEE
libsymengine.so.0.6:_ZN9SymEngine4zetaERKNS_3RCPIKNS_5BasicEEES5_
libsymengine.so.0.6:_ZN9SymEngine5ACoshC1ERKNS_3RCPIKNS_5BasicEEE
libsymengine.so.0.6:_ZN9SymEngine5ACoshC2ERKNS_3RCPIKNS_5BasicEEE
libsymengine.so.0.6:_ZN9SymEngine5ACothC1ERKNS_3RCPIKNS_5BasicEEE
libsymengine.so.0.6:_ZN9SymEngine5ACothC2ERKNS_3RCPIKNS_5BasicEEE
libsymengine.so.0.6:_ZN9SymEngine5ACschC1ERKNS_3RCPIKNS_5BasicEEE
libsymengine.so.0.6:_ZN9SymEngine5ACschC2ERKNS_3RCPIKNS_5BasicEEE
libsymengine.so.0.6:_ZN9SymEngine5ASechC1ERKNS_3RCPIKNS_5BasicEEE
libsymengine.so.0.6:_ZN9SymEngine5ASechC2ERKNS_3RCPIKNS_5BasicEEE
libsymengine.so.0.6:_ZN9SymEngine5ASinhC1ERKNS_3RCPIKNS_5BasicEEE
libsymengine.so.0.6:_ZN9SymEngine5ASinhC2ERKNS_3RCPIKNS_5BasicEEE
libsymengine.so.0.6:_ZN9SymEngine5ATan2C1ERKNS_3RCPIKNS_5BasicEEES6_
libsymengine.so.0.6:_ZN9SymEngine5ATan2C2ERKNS_3RCPIKNS_5BasicEEES6_
libsymengine.so.0.6:_ZN9SymEngine5ATanhC1ERKNS_3RCPIKNS_5BasicEEE
libsymengine.so.0.6:_ZN9SymEngine5ATanhC2ERKNS_3RCPIKNS_5BasicEEE
libsymengine.so.0.6:_ZN9SymEngine5DummyC1ERKNSt7__cxx1112basic_stringIcSt11char_traitsIcESaIcEEE
libsymengine.so.0.6:_ZN9SymEngine5DummyC1Ev
libsymengine.so.0.6:_ZN9SymEngine5DummyC2ERKNSt7__cxx1112basic_stringIcSt11char_traitsIcESaIcEEE
libsymengine.so.0.6:_ZN9SymEngine5DummyC2Ev
libsymengine.so.0.6:_ZN9SymEngine5FloorC1ERKNS_3RCPIKNS_5BasicEEE
libsymengine.so.0.6:_ZN9SymEngine5FloorC2ERKNS_3RCPIKNS_5BasicEEE
libsymengine.so.0.6:_ZN9SymEngine5GammaC1ERKNS_3RCPIKNS_5BasicEEE
libsymengine.so.0.6:_ZN9SymEngine5GammaC2ERKNS_3RCPIKNS_5BasicEEE
libsymengine.so.0.6:_ZN9SymEngine5Infty14from_directionERKNS_3RCPIKNS_6NumberEEE
libsymengine.so.0.6:_ZN9SymEngine5Infty8from_intEi
libsymengine.so.0.6:_ZN9SymEngine5InftyC1ERKNS_3RCPIKNS_6NumberEEE
libsymengine.so.0.6:_ZN9SymEngine5InftyC1ERKS0_
libsymengine.so.0.6:_ZN9SymEngine5InftyC2ERKNS_3RCPIKNS_6NumberEEE
libsymengine.so.0.6:_ZN9SymEngine5InftyC2ERKS0_
libsymengine.so.0.6:_ZN9SymEngine5Sieve14set_sieve_sizeEj
libsymengine.so.0.6:_ZN9SymEngine5Sieve15generate_primesERSt6vectorIjSaIjEEj
libsymengine.so.0.6:_ZN9SymEngine5Sieve5clearEv
libsymengine.so.0.6:_ZN9SymEngine5Sieve7_extendEj
libsymengine.so.0.6:_ZN9SymEngine5Sieve8iterator10next_primeEv
libsymengine.so.0.6:_ZN9SymEngine5Sieve8iteratorC1Ej
libsymengine.so.0.6:_ZN9SymEngine5Sieve8iteratorC1Ev
libsymengine.so.0.6:_ZN9SymEngine5Sieve8iteratorC2Ej
libsymengine.so.0.6:_ZN9SymEngine5Sieve8iteratorC2Ev
libsymengine.so.0.6:_ZN9SymEngine5Sieve8iteratorD1Ev
libsymengine.so.0.6:_ZN9SymEngine5Sieve8iteratorD2Ev
libsymengine.so.0.6:_ZN9SymEngine5Sieve9set_clearEb
libsymengine.so.0.6:_ZN9SymEngine5Union12is_canonicalERKSt3setINS_3RCPIKNS_3SetEEENS_15RCPBasicKeyLessESaIS5_EE
libsymengine.so.0.6:_ZN9SymEngine5UnionC1ERKSt3setINS_3RCPIKNS_3SetEEENS_15RCPBasicKeyLessESaIS5_EE
libsymengine.so.0.6:_ZN9SymEngine5UnionC2ERKSt3setINS_3RCPIKNS_3SetEEENS_15RCPBasicKeyLessESaIS5_EE
libsymengine.so.0.6:_ZN9SymEngine5acoshERKNS_3RCPIKNS_5BasicEEE
libsymengine.so.0.6:_ZN9SymEngine5acothERKNS_3RCPIKNS_5BasicEEE
libsymengine.so.0.6:_ZN9SymEngine5acschERKNS_3RCPIKNS_5BasicEEE
libsymengine.so.0.6:_ZN9SymEngine5asechERKNS_3RCPIKNS_5BasicEEE
libsymengine.so.0.6:_ZN9SymEngine5asinhERKNS_3RCPIKNS_5BasicEEE
libsymengine.so.0.6:_ZN9SymEngine5atan2ERKNS_3RCPIKNS_5BasicEEES5_
libsymengine.so.0.6:_ZN9SymEngine5atanhERKNS_3RCPIKNS_5BasicEEE
libsymengine.so.0.6:_ZN9SymEngine5ccodeB5cxx11ERKNS_5BasicE
libsymengine.so.0.6:_ZN9SymEngine5coeffERKNS_5BasicES2_S2_
libsymengine.so.0.6:_ZN9SymEngine5crossERKNS_11DenseMatrixES2_RS0_
libsymengine.so.0.6:_ZN9SymEngine5evalfERKNS_5BasicEmNS_11EvalfDomainE
libsymengine.so.0.6:_ZN9SymEngine5floorERKNS_3RCPIKNS_5BasicEEE
libsymengine.so.0.6:_ZN9SymEngine5gammaERKNS_3RCPIKNS_5BasicEEE
libsymengine.so.0.6:_ZN9SymEngine5isqrtERKNS_7IntegerE
libsymengine.so.0.6:_ZN9SymEngine5latexB5cxx11ERKNS_5BasicE
libsymengine.so.0.6:_ZN9SymEngine5lucasEm
libsymengine.so.0.6:_ZN9SymEngine5mod_fERKNS_7IntegerES2_
libsymengine.so.0.6:_ZN9SymEngine5orderERKNS_11DenseMatrixERKSt6vectorIS0_SaIS0_EEj
libsymengine.so.0.6:_ZN9SymEngine5parseERKNSt7__cxx1112basic_stringIcSt11char_traitsIcESaIcEEEb
libsymengine.so.0.6:_ZN9SymEngine5pivotERNS_11DenseMatrixEjj
libsymengine.so.0.6:_ZN9SymEngine5sdiffERKNS_11DenseMatrixERKNS_3RCPIKNS_5BasicEEERS0_b
libsymengine.so.0.6:_ZN9SymEngine5sdiffERKNS_3RCPIKNS_5BasicEEES5_b
libsymengine.so.0.6:_ZN9SymEngine5solveERKNS_3RCPIKNS_5BasicEEERKNS0_IKNS_6SymbolEEERKNS0_IKNS_3SetEEE
libsymengine.so.0.6:_ZN9SymEngine5zerosERNS_11DenseMatrixE
libsymengine.so.0.6:_ZN9SymEngine6Parser11functionifyERKNSt7__cxx1112basic_stringIcSt11char_traitsIcESaIcEEERSt6vectorINS_3RCPIKNS_5BasicEEESaISD_EE
libsymengine.so.0.6:_ZN9SymEngine6Parser13parse_numericERKNSt7__cxx1112basic_stringIcSt11char_traitsIcESaIcEEE
libsymengine.so.0.6:_ZN9SymEngine6Parser16parse_identifierERKNSt7__cxx1112basic_stringIcSt11char_traitsIcESaIcEEE
libsymengine.so.0.6:_ZN9SymEngine6Parser18parse_implicit_mulERKNSt7__cxx1112basic_stringIcSt11char_traitsIcESaIcEEE
libsymengine.so.0.6:_ZN9SymEngine6Parser5parseERKNSt7__cxx1112basic_stringIcSt11char_traitsIcESaIcEEEb
libsymengine.so.0.6:_ZN9SymEngine6SymbolC1ERKNSt7__cxx1112basic_stringIcSt11char_traitsIcESaIcEEE
libsymengine.so.0.6:_ZN9SymEngine6SymbolC2ERKNSt7__cxx1112basic_stringIcSt11char_traitsIcESaIcEEE
libsymengine.so.0.6:_ZN9SymEngine6detail10poly_printB5cxx11ERKNS_10ExpressionE
libsymengine.so.0.6:_ZN9SymEngine6expandERKNS_3RCPIKNS_5BasicEEEb
libsymengine.so.0.6:_ZN9SymEngine6factorERKNS_3PtrINS_3RCPIKNS_7IntegerEEEEERS3_d
libsymengine.so.0.6:_ZN9SymEngine6jacobiERKNS_7IntegerES2_
libsymengine.so.0.6:_ZN9SymEngine6jscodeB5cxx11ERKNS_5BasicE
libsymengine.so.0.6:_ZN9SymEngine6lucas2ERKNS_3PtrINS_3RCPIKNS_7IntegerEEEEES7_m
libsymengine.so.0.6:_ZN9SymEngine6mathmlB5cxx11ERKNS_5BasicE
libsymengine.so.0.6:_ZN9SymEngine6mobiusERKNS_7IntegerE
libsymengine.so.0.6:_ZN9SymEngine6numberESt7complexIdE
libsymengine.so.0.6:_ZN9SymEngine6numberEd
libsymengine.so.0.6:_ZN9SymEngine6seriesERKNS_3RCPIKNS_5BasicEEERKNS0_IKNS_6SymbolEEEj
libsymengine.so.0.6:_ZN9SymEngine7CeilingC1ERKNS_3RCPIKNS_5BasicEEE
libsymengine.so.0.6:_ZN9SymEngine7CeilingC2ERKNS_3RCPIKNS_5BasicEEE
libsymengine.so.0.6:_ZN9SymEngine7Complex13from_two_numsERKNS_6NumberES3_
libsymengine.so.0.6:_ZN9SymEngine7Complex13from_two_ratsERKNS_8RationalES3_
libsymengine.so.0.6:_ZN9SymEngine7Complex8from_mpqENS_11mpq_wrapperES1_
libsymengine.so.0.6:_ZN9SymEngine7ComplexC1ENS_11mpq_wrapperES1_
libsymengine.so.0.6:_ZN9SymEngine7ComplexC2ENS_11mpq_wrapperES1_
libsymengine.so.0.6:_ZN9SymEngine7ceilingERKNS_3RCPIKNS_5BasicEEE
libsymengine.so.0.6:_ZN9SymEngine7digammaERKNS_3RCPIKNS_5BasicEEE
libsymengine.so.0.6:_ZN9SymEngine7dividesERKNS_7IntegerES2_
libsymengine.so.0.6:_ZN9SymEngine7gcd_extERKNS_3PtrINS_3RCPIKNS_7IntegerEEEEES7_S7_RS3_S8_
libsymengine.so.0.6:_ZN9SymEngine7has_dupERKSt6vectorINS_3RCPIKNS_5BasicEEESaIS4_EE
libsymengine.so.0.6:_ZN9SymEngine7mertensEm
libsymengine.so.0.6:_ZN9SymEngine7opt_cseERKSt6vectorINS_3RCPIKNS_5BasicEEESaIS4_EE
libsymengine.so.0.6:_ZN9SymEngine7totientERKNS_3RCPIKNS_7IntegerEEE
libsymengine.so.0.6:_ZN9SymEngine8ConstantC1ERKNSt7__cxx1112basic_stringIcSt11char_traitsIcESaIcEEE
libsymengine.so.0.6:_ZN9SymEngine8ConstantC2ERKNSt7__cxx1112basic_stringIcSt11char_traitsIcESaIcEEE
libsymengine.so.0.6:_ZN9SymEngine8ContainsC1ERKNS_3RCPIKNS_5BasicEEERKNS1_IKNS_3SetEEE
libsymengine.so.0.6:_ZN9SymEngine8ContainsC2ERKNS_3RCPIKNS_5BasicEEERKNS1_IKNS_3SetEEE
libsymengine.so.0.6:_ZN9SymEngine8EmptySet11getInstanceEv
libsymengine.so.0.6:_ZN9SymEngine8EqualityC1ERKNS_3RCPIKNS_5BasicEEES6_
libsymengine.so.0.6:_ZN9SymEngine8EqualityC2ERKNS_3RCPIKNS_5BasicEEES6_
libsymengine.so.0.6:_ZN9SymEngine8ImageSet12is_canonicalERKNS_3RCPIKNS_5BasicEEES6_RKNS1_IKNS_3SetEEE
libsymengine.so.0.6:_ZN9SymEngine8ImageSetC1ERKNS_3RCPIKNS_5BasicEEES6_RKNS1_IKNS_3SetEEE
libsymengine.so.0.6:_ZN9SymEngine8ImageSetC2ERKNS_3RCPIKNS_5BasicEEES6_RKNS1_IKNS_3SetEEE
libsymengine.so.0.6:_ZN9SymEngine8Interval12is_canonicalERKNS_3RCPIKNS_6NumberEEES6_bb
libsymengine.so.0.6:_ZN9SymEngine8IntervalC1ERKNS_3RCPIKNS_6NumberEEES6_bb
libsymengine.so.0.6:_ZN9SymEngine8IntervalC2ERKNS_3RCPIKNS_6NumberEEES6_bb
libsymengine.so.0.6:_ZN9SymEngine8LU_solveERKNS_11DenseMatrixES2_RS0_
libsymengine.so.0.6:_ZN9SymEngine8LambertWC1ERKNS_3RCPIKNS_5BasicEEE
libsymengine.so.0.6:_ZN9SymEngine8LambertWC2ERKNS_3RCPIKNS_5BasicEEE
libsymengine.so.0.6:_ZN9SymEngine8LessThanC1ERKNS_3RCPIKNS_5BasicEEES6_
libsymengine.so.0.6:_ZN9SymEngine8LessThanC2ERKNS_3RCPIKNS_5BasicEEES6_
libsymengine.so.0.6:_ZN9SymEngine8Rational13from_two_intsERKNS_7IntegerES3_
libsymengine.so.0.6:_ZN9SymEngine8Rational13from_two_intsEll
libsymengine.so.0.6:_ZN9SymEngine8Rational8from_mpqEONS_11mpq_wrapperE
libsymengine.so.0.6:_ZN9SymEngine8Rational8from_mpqERKNS_11mpq_wrapperE
libsymengine.so.0.6:_ZN9SymEngine8RealMPFRC1ENS_10mpfr_classE
libsymengine.so.0.6:_ZN9SymEngine8RealMPFRC2ENS_10mpfr_classE
libsymengine.so.0.6:_ZN9SymEngine8TruncateC1ERKNS_3RCPIKNS_5BasicEEE
libsymengine.so.0.6:_ZN9SymEngine8TruncateC2ERKNS_3RCPIKNS_5BasicEEE
libsymengine.so.0.6:_ZN9SymEngine8UIntPolyC1ERKNS_3RCPIKNS_5BasicEEEONS_8UIntDictE
libsymengine.so.0.6:_ZN9SymEngine8UIntPolyC2ERKNS_3RCPIKNS_5BasicEEEONS_8UIntDictE
libsymengine.so.0.6:_ZN9SymEngine8URatPolyC1ERKNS_3RCPIKNS_5BasicEEEONS_8URatDictE
libsymengine.so.0.6:_ZN9SymEngine8URatPolyC2ERKNS_3RCPIKNS_5BasicEEEONS_8URatDictE
libsymengine.so.0.6:_ZN9SymEngine8binomialERKNS_7IntegerEm
libsymengine.so.0.6:_ZN9SymEngine8choleskyERKNS_11DenseMatrixERS0_
libsymengine.so.0.6:_ZN9SymEngine8containsERKNS_3RCPIKNS_5BasicEEERKNS0_IKNS_3SetEEE
libsymengine.so.0.6:_ZN9SymEngine8eval_mpcEP12__mpc_structRKNS_5BasicE10mpfr_rnd_t
libsymengine.so.0.6:_ZN9SymEngine8harmonicEml
libsymengine.so.0.6:_ZN9SymEngine8jacobianERKNS_11DenseMatrixES2_RS0_b
libsymengine.so.0.6:_ZN9SymEngine8lambertwERKNS_3RCPIKNS_5BasicEEE
libsymengine.so.0.6:_ZN9SymEngine8legendreERKNS_7IntegerES2_
libsymengine.so.0.6:_ZN9SymEngine8linsolveERKNS_11DenseMatrixERKSt6vectorINS_3RCPIKNS_6SymbolEEESaIS7_EE
libsymengine.so.0.6:_ZN9SymEngine8linsolveERKSt6vectorINS_3RCPIKNS_5BasicEEESaIS4_EERKS0_INS1_IKNS_6SymbolEEESaISB_EE
libsymengine.so.0.6:_ZN9SymEngine8loggammaERKNS_3RCPIKNS_5BasicEEE
libsymengine.so.0.6:_ZN9SymEngine8poly_mulERKSt13unordered_mapISt6vectorIiSaIiEENS_11mpz_wrapperENS_8vec_hashIS3_EESt8equal_toIS3_ESaISt4pairIKS3_S4_EEESF_RSD_
libsymengine.so.0.6:_ZN9SymEngine8powermodERKNS_3PtrINS_3RCPIKNS_7IntegerEEEEERKS4_RKNS1_IKNS_6NumberEEES9_
libsymengine.so.0.6:_ZN9SymEngine8quotientERKNS_7IntegerES2_
libsymengine.so.0.6:_ZN9SymEngine8set_diffERKSt3setIjSt4lessIjESaIjEERKSt6vectorIjS3_E
libsymengine.so.0.6:_ZN9SymEngine8tree_cseERSt6vectorISt4pairINS_3RCPIKNS_5BasicEEES5_ESaIS6_EERS0_IS5_SaIS5_EERKSB_RSt13unordered_mapIS5_S5_NS_12RCPBasicHashENS_13RCPBasicKeyEqESaIS1_IKS5_S5_EEE
libsymengine.so.0.6:_ZN9SymEngine8trigammaERKNS_3RCPIKNS_5BasicEEE
libsymengine.so.0.6:_ZN9SymEngine8truncateERKNS_3RCPIKNS_5BasicEEE
libsymengine.so.0.6:_ZN9SymEngine9CSRMatrix16csr_sort_indicesERSt6vectorIjSaIjEES4_RS1_INS_3RCPIKNS_5BasicEEESaIS8_EEj
libsymengine.so.0.6:_ZN9SymEngine9CSRMatrix18csr_has_duplicatesERKSt6vectorIjSaIjEES5_j
libsymengine.so.0.6:_ZN9SymEngine9CSRMatrix18csr_sum_duplicatesERSt6vectorIjSaIjEES4_RS1_INS_3RCPIKNS_5BasicEEESaIS8_EEj
libsymengine.so.0.6:_ZN9SymEngine9CSRMatrix22csr_has_sorted_indicesERKSt6vectorIjSaIjEES5_j
libsymengine.so.0.6:_ZN9SymEngine9CSRMatrix24csr_has_canonical_formatERKSt6vectorIjSaIjEES5_j
libsymengine.so.0.6:_ZN9SymEngine9CSRMatrix3setEjjRKNS_3RCPIKNS_5BasicEEE
libsymengine.so.0.6:_ZN9SymEngine9CSRMatrix8from_cooEjjRKSt6vectorIjSaIjEES5_RKS1_INS_3RCPIKNS_5BasicEEESaIS9_EE
libsymengine.so.0.6:_ZN9SymEngine9CSRMatrix8jacobianERKNS_11DenseMatrixES3_b
libsymengine.so.0.6:_ZN9SymEngine9CSRMatrix8jacobianERKSt6vectorINS_3RCPIKNS_5BasicEEESaIS5_EERKS1_INS2_IKNS_6SymbolEEESaISC_EEb
libsymengine.so.0.6:_ZN9SymEngine9CSRMatrixC1Ejj
libsymengine.so.0.6:_ZN9SymEngine9CSRMatrixC1EjjOSt6vectorIjSaIjEES4_OS1_INS_3RCPIKNS_5BasicEEESaIS8_EE
libsymengine.so.0.6:_ZN9SymEngine9CSRMatrixC1EjjRKSt6vectorIjSaIjEES5_RKS1_INS_3RCPIKNS_5BasicEEESaIS9_EE
libsymengine.so.0.6:_ZN9SymEngine9CSRMatrixC1Ev
libsymengine.so.0.6:_ZN9SymEngine9CSRMatrixC2Ejj
libsymengine.so.0.6:_ZN9SymEngine9CSRMatrixC2EjjOSt6vectorIjSaIjEES4_OS1_INS_3RCPIKNS_5BasicEEESaIS8_EE
libsymengine.so.0.6:_ZN9SymEngine9CSRMatrixC2EjjRKSt6vectorIjSaIjEES5_RKS1_INS_3RCPIKNS_5BasicEEESaIS9_EE
libsymengine.so.0.6:_ZN9SymEngine9CSRMatrixC2Ev
libsymengine.so.0.6:_ZN9SymEngine9CSRMatrixaSEOS0_
libsymengine.so.0.6:_ZN9SymEngine9ConjugateC1ERKNS_3RCPIKNS_5BasicEEE
libsymengine.so.0.6:_ZN9SymEngine9ConjugateC2ERKNS_3RCPIKNS_5BasicEEE
libsymengine.so.0.6:_ZN9SymEngine9FiniteSet12is_canonicalERKSt3setINS_3RCPIKNS_5BasicEEENS_15RCPBasicKeyLessESaIS5_EE
libsymengine.so.0.6:_ZN9SymEngine9FiniteSetC1ERKSt3setINS_3RCPIKNS_5BasicEEENS_15RCPBasicKeyLessESaIS5_EE
libsymengine.so.0.6:_ZN9SymEngine9FiniteSetC2ERKSt3setINS_3RCPIKNS_5BasicEEENS_15RCPBasicKeyLessESaIS5_EE
libsymengine.so.0.6:_ZN9SymEngine9LDL_solveERKNS_11DenseMatrixES2_RS0_
libsymengine.so.0.6:_ZN9SymEngine9PiecewiseC1EOSt6vectorISt4pairINS_3RCPIKNS_5BasicEEENS3_IKNS_7BooleanEEEESaISA_EE
libsymengine.so.0.6:_ZN9SymEngine9PiecewiseC2EOSt6vectorISt4pairINS_3RCPIKNS_5BasicEEENS3_IKNS_7BooleanEEEESaISA_EE
libsymengine.so.0.6:_ZN9SymEngine9PolyGamma12is_canonicalERKNS_3RCPIKNS_5BasicEEES6_
libsymengine.so.0.6:_ZN9SymEngine9Tokenizer10set_stringERKNSt7__cxx1112basic_stringIcSt11char_traitsIcESaIcEEE
libsymengine.so.0.6:_ZN9SymEngine9Tokenizer3lexERNS_7YYSTYPEE
libsymengine.so.0.6:_ZN9SymEngine9UExprPolyC1ERKNS_3RCPIKNS_5BasicEEEONS_9UExprDictE
libsymengine.so.0.6:_ZN9SymEngine9UExprPolyC2ERKNS_3RCPIKNS_5BasicEEEONS_9UExprDictE
libsymengine.so.0.6:_ZN9SymEngine9ascii_artB5cxx11Ev
libsymengine.so.0.6:_ZN9SymEngine9berkowitzERKNS_11DenseMatrixERSt6vectorIS0_SaIS0_EE
libsymengine.so.0.6:_ZN9SymEngine9bernoulliEm
libsymengine.so.0.6:_ZN9SymEngine9char_polyERKNS_11DenseMatrixERS0_
libsymengine.so.0.6:_ZN9SymEngine9conjugateERKNS_3RCPIKNS_5BasicEEE
libsymengine.so.0.6:_ZN9SymEngine9count_opsERKSt6vectorINS_3RCPIKNS_5BasicEEESaIS4_EE
libsymengine.so.0.6:_ZN9SymEngine9eval_mpfrEP13__mpfr_structRKNS_5BasicE10mpfr_rnd_t
libsymengine.so.0.6:_ZN9SymEngine9expr2polyERKNS_3RCPIKNS_5BasicEEERSt13unordered_mapIS3_NS0_IKNS_6NumberEEENS_12RCPBasicHashENS_13RCPBasicKeyEqESaISt4pairIS4_S9_EEERS6_ISt6vectorIiSaIiEENS_11mpz_wrapperENS_8vec_hashISJ_EESt8equal_toISJ_ESaISC_IKSJ_SK_EEE
libsymengine.so.0.6:_ZN9SymEngine9factorialEm
libsymengine.so.0.6:_ZN9SymEngine9fibonacciEm
libsymengine.so.0.6:_ZN9SymEngine9is_a_AtomERKNS_5BasicE
libsymengine.so.0.6:_ZN9SymEngine9julia_strB5cxx11ERKNS_5BasicE
libsymengine.so.0.6:_ZN9SymEngine9kroneckerERKNS_7IntegerES2_
libsymengine.so.0.6:_ZN9SymEngine9nextprimeERKNS_7IntegerE
libsymengine.so.0.6:_ZN9SymEngine9parse_oldERKNSt7__cxx1112basic_stringIcSt11char_traitsIcESaIcEEEb
libsymengine.so.0.6:_ZN9SymEngine9polygammaERKNS_3RCPIKNS_5BasicEEES5_
libsymengine.so.0.6:_ZN9SymEngine9reconcileERSt6vectorIjSaIjEES3_RSt3setINS_3RCPIKNS_5BasicEEENS_15RCPBasicKeyLessESaIS8_EERKSB_SE_
libsymengine.so.0.6:_ZN9SymEngine9set_unionERKSt3setINS_3RCPIKNS_3SetEEENS_15RCPBasicKeyLessESaIS4_EE
libsymengine.so.0.6:_ZN9SymEngine9sjacobianERKNS_11DenseMatrixES2_RS0_b
libsymengine.so.0.6:_ZN9SymEnginelsERSoRKNS_11mpq_wrapperE
libsymengine.so.0.6:_ZN9SymEnginelsERSoRKNS_11mpz_wrapperE
libsymengine.so.0.6:_ZN9SymEnginelsERSoRKSt13unordered_mapINS_3RCPIKNS_5BasicEEENS2_IKNS_6NumberEEENS_12RCPBasicHashENS_13RCPBasicKeyEqESaISt4pairIKS5_S8_EEE
libsymengine.so.0.6:_ZN9SymEnginelsERSoRKSt13unordered_mapINS_3RCPIKNS_5BasicEEES5_NS_12RCPBasicHashENS_13RCPBasicKeyEqESaISt4pairIKS5_S5_EEE
libsymengine.so.0.6:_ZN9SymEnginelsERSoRKSt3mapINS_3RCPIKNS_5BasicEEENS2_IKNS_6NumberEEENS_15RCPBasicKeyLessESaISt4pairIKS5_S8_EEE
libsymengine.so.0.6:_ZN9SymEnginelsERSoRKSt3mapINS_3RCPIKNS_5BasicEEES5_NS_15RCPBasicKeyLessESaISt4pairIKS5_S5_EEE
libsymengine.so.0.6:_ZN9SymEnginelsERSoRKSt3mapIiNS_10ExpressionESt4lessIiESaISt4pairIKiS2_EEE
libsymengine.so.0.6:_ZN9SymEnginelsERSoRKSt3setINS_3RCPIKNS_5BasicEEENS_15RCPBasicKeyLessESaIS5_EE
libsymengine.so.0.6:_ZN9SymEnginelsERSoRKSt6vectorINS_3RCPIKNS_5BasicEEESaIS5_EE
libsymengine.so.0.6:_ZN9SymEnginelsERSoRKSt6vectorISt4pairINS_3RCPIKNS_5BasicEEES6_ESaIS7_EE
libsymengine.so.0.6:_ZNK9SymEngine10Complement14set_complementERKNS_3RCPIKNS_3SetEEE
libsymengine.so.0.6:_ZNK9SymEngine10Complement16set_intersectionERKNS_3RCPIKNS_3SetEEE
libsymengine.so.0.6:_ZNK9SymEngine10Complement6__eq__ERKNS_5BasicE
libsymengine.so.0.6:_ZNK9SymEngine10Complement6acceptERNS_26EvalRealDoubleVisitorFinalE
libsymengine.so.0.6:_ZNK9SymEngine10Complement6acceptERNS_7VisitorE
libsymengine.so.0.6:_ZNK9SymEngine10Complement7compareERKNS_5BasicE
libsymengine.so.0.6:_ZNK9SymEngine10Complement8__hash__Ev
libsymengine.so.0.6:_ZNK9SymEngine10Complement8containsERKNS_3RCPIKNS_5BasicEEE
libsymengine.so.0.6:_ZNK9SymEngine10Complement9set_unionERKNS_3RCPIKNS_3SetEEE
libsymengine.so.0.6:_ZNK9SymEngine10ComplexMPC14imaginary_partEv
libsymengine.so.0.6:_ZNK9SymEngine10ComplexMPC3addERKNS_10RealDoubleE
libsymengine.so.0.6:_ZNK9SymEngine10ComplexMPC3addERKNS_13ComplexDoubleE
libsymengine.so.0.6:_ZNK9SymEngine10ComplexMPC3addERKNS_7ComplexE
libsymengine.so.0.6:_ZNK9SymEngine10ComplexMPC3addERKNS_7IntegerE
libsymengine.so.0.6:_ZNK9SymEngine10ComplexMPC3addERKNS_8RationalE
libsymengine.so.0.6:_ZNK9SymEngine10ComplexMPC3addERKNS_8RealMPFRE
libsymengine.so.0.6:_ZNK9SymEngine10ComplexMPC3addERKS0_
libsymengine.so.0.6:_ZNK9SymEngine10ComplexMPC3divERKNS_10RealDoubleE
libsymengine.so.0.6:_ZNK9SymEngine10ComplexMPC3divERKNS_13ComplexDoubleE
libsymengine.so.0.6:_ZNK9SymEngine10ComplexMPC3divERKNS_7ComplexE
libsymengine.so.0.6:_ZNK9SymEngine10ComplexMPC3divERKNS_7IntegerE
libsymengine.so.0.6:_ZNK9SymEngine10ComplexMPC3divERKNS_8RationalE
libsymengine.so.0.6:_ZNK9SymEngine10ComplexMPC3divERKNS_8RealMPFRE
libsymengine.so.0.6:_ZNK9SymEngine10ComplexMPC3divERKS0_
libsymengine.so.0.6:_ZNK9SymEngine10ComplexMPC3mulERKNS_10RealDoubleE
libsymengine.so.0.6:_ZNK9SymEngine10ComplexMPC3mulERKNS_13ComplexDoubleE
libsymengine.so.0.6:_ZNK9SymEngine10ComplexMPC3mulERKNS_7ComplexE
libsymengine.so.0.6:_ZNK9SymEngine10ComplexMPC3mulERKNS_7IntegerE
libsymengine.so.0.6:_ZNK9SymEngine10ComplexMPC3mulERKNS_8RationalE
libsymengine.so.0.6:_ZNK9SymEngine10ComplexMPC3mulERKNS_8RealMPFRE
libsymengine.so.0.6:_ZNK9SymEngine10ComplexMPC3mulERKS0_
libsymengine.so.0.6:_ZNK9SymEngine10ComplexMPC3powERKNS_10RealDoubleE
libsymengine.so.0.6:_ZNK9SymEngine10ComplexMPC3powERKNS_13ComplexDoubleE
libsymengine.so.0.6:_ZNK9SymEngine10ComplexMPC3powERKNS_7ComplexE
libsymengine.so.0.6:_ZNK9SymEngine10ComplexMPC3powERKNS_7IntegerE
libsymengine.so.0.6:_ZNK9SymEngine10ComplexMPC3powERKNS_8RationalE
libsymengine.so.0.6:_ZNK9SymEngine10ComplexMPC3powERKNS_8RealMPFRE
libsymengine.so.0.6:_ZNK9SymEngine10ComplexMPC3powERKS0_
libsymengine.so.0.6:_ZNK9SymEngine10ComplexMPC3subERKNS_10RealDoubleE
libsymengine.so.0.6:_ZNK9SymEngine10ComplexMPC3subERKNS_13ComplexDoubleE
libsymengine.so.0.6:_ZNK9SymEngine10ComplexMPC3subERKNS_7ComplexE
libsymengine.so.0.6:_ZNK9SymEngine10ComplexMPC3subERKNS_7IntegerE
libsymengine.so.0.6:_ZNK9SymEngine10ComplexMPC3subERKNS_8RationalE
libsymengine.so.0.6:_ZNK9SymEngine10ComplexMPC3subERKNS_8RealMPFRE
libsymengine.so.0.6:_ZNK9SymEngine10ComplexMPC3subERKS0_
libsymengine.so.0.6:_ZNK9SymEngine10ComplexMPC4rdivERKNS_10RealDoubleE
libsymengine.so.0.6:_ZNK9SymEngine10ComplexMPC4rdivERKNS_13ComplexDoubleE
libsymengine.so.0.6:_ZNK9SymEngine10ComplexMPC4rdivERKNS_7ComplexE
libsymengine.so.0.6:_ZNK9SymEngine10ComplexMPC4rdivERKNS_7IntegerE
libsymengine.so.0.6:_ZNK9SymEngine10ComplexMPC4rdivERKNS_8RationalE
libsymengine.so.0.6:_ZNK9SymEngine10ComplexMPC4rdivERKNS_8RealMPFRE
libsymengine.so.0.6:_ZNK9SymEngine10ComplexMPC4rpowERKNS_10RealDoubleE
libsymengine.so.0.6:_ZNK9SymEngine10ComplexMPC4rpowERKNS_13ComplexDoubleE
libsymengine.so.0.6:_ZNK9SymEngine10ComplexMPC4rpowERKNS_7ComplexE
libsymengine.so.0.6:_ZNK9SymEngine10ComplexMPC4rpowERKNS_7IntegerE
libsymengine.so.0.6:_ZNK9SymEngine10ComplexMPC4rpowERKNS_8RationalE
libsymengine.so.0.6:_ZNK9SymEngine10ComplexMPC4rpowERKNS_8RealMPFRE
libsymengine.so.0.6:_ZNK9SymEngine10ComplexMPC4rsubERKNS_10RealDoubleE
libsymengine.so.0.6:_ZNK9SymEngine10ComplexMPC4rsubERKNS_13ComplexDoubleE
libsymengine.so.0.6:_ZNK9SymEngine10ComplexMPC4rsubERKNS_7ComplexE
libsymengine.so.0.6:_ZNK9SymEngine10ComplexMPC4rsubERKNS_7IntegerE
libsymengine.so.0.6:_ZNK9SymEngine10ComplexMPC4rsubERKNS_8RationalE
libsymengine.so.0.6:_ZNK9SymEngine10ComplexMPC4rsubERKNS_8RealMPFRE
libsymengine.so.0.6:_ZNK9SymEngine10ComplexMPC6__eq__ERKNS_5BasicE
libsymengine.so.0.6:_ZNK9SymEngine10ComplexMPC6acceptERNS_26EvalRealDoubleVisitorFinalE
libsymengine.so.0.6:_ZNK9SymEngine10ComplexMPC6acceptERNS_7VisitorE
libsymengine.so.0.6:_ZNK9SymEngine10ComplexMPC7compareERKNS_5BasicE
libsymengine.so.0.6:_ZNK9SymEngine10ComplexMPC8__hash__Ev
libsymengine.so.0.6:_ZNK9SymEngine10ComplexMPC8get_evalEv
libsymengine.so.0.6:_ZNK9SymEngine10ComplexMPC9conjugateEv
libsymengine.so.0.6:_ZNK9SymEngine10ComplexMPC9real_partEv
libsymengine.so.0.6:_ZNK9SymEngine10Derivative12is_canonicalERKNS_3RCPIKNS_5BasicEEERKSt8multisetIS4_NS_15RCPBasicKeyLessESaIS4_EE
libsymengine.so.0.6:_ZNK9SymEngine10Derivative6__eq__ERKNS_5BasicE
libsymengine.so.0.6:_ZNK9SymEngine10Derivative6acceptERNS_26EvalRealDoubleVisitorFinalE
libsymengine.so.0.6:_ZNK9SymEngine10Derivative6acceptERNS_7VisitorE
libsymengine.so.0.6:_ZNK9SymEngine10Derivative7compareERKNS_5BasicE
libsymengine.so.0.6:_ZNK9SymEngine10Derivative8__hash__Ev
libsymengine.so.0.6:_ZNK9SymEngine10LeviCivita12is_canonicalERKSt6vectorINS_3RCPIKNS_5BasicEEESaIS5_EE
libsymengine.so.0.6:_ZNK9SymEngine10LeviCivita6acceptERNS_26EvalRealDoubleVisitorFinalE
libsymengine.so.0.6:_ZNK9SymEngine10LeviCivita6acceptERNS_7VisitorE
libsymengine.so.0.6:_ZNK9SymEngine10LeviCivita6createERKSt6vectorINS_3RCPIKNS_5BasicEEESaIS5_EE
libsymengine.so.0.6:_ZNK9SymEngine10LowerGamma12is_canonicalERKNS_3RCPIKNS_5BasicEEES6_
libsymengine.so.0.6:_ZNK9SymEngine10LowerGamma6acceptERNS_26EvalRealDoubleVisitorFinalE
libsymengine.so.0.6:_ZNK9SymEngine10LowerGamma6acceptERNS_7VisitorE
libsymengine.so.0.6:_ZNK9SymEngine10LowerGamma6createERKNS_3RCPIKNS_5BasicEEES6_
libsymengine.so.0.6:_ZNK9SymEngine10MatrixBase2eqERKS0_
libsymengine.so.0.6:_ZNK9SymEngine10MatrixBase7__str__B5cxx11Ev
libsymengine.so.0.6:_ZNK9SymEngine10RealDouble6__eq__ERKNS_5BasicE
libsymengine.so.0.6:_ZNK9SymEngine10RealDouble6acceptERNS_26EvalRealDoubleVisitorFinalE
libsymengine.so.0.6:_ZNK9SymEngine10RealDouble6acceptERNS_7VisitorE
libsymengine.so.0.6:_ZNK9SymEngine10RealDouble7compareERKNS_5BasicE
libsymengine.so.0.6:_ZNK9SymEngine10RealDouble8__hash__Ev
libsymengine.so.0.6:_ZNK9SymEngine10RealDouble8get_evalEv
libsymengine.so.0.6:_ZNK9SymEngine10Unequality11logical_notEv
libsymengine.so.0.6:_ZNK9SymEngine10Unequality6acceptERNS_26EvalRealDoubleVisitorFinalE
libsymengine.so.0.6:_ZNK9SymEngine10Unequality6acceptERNS_7VisitorE
libsymengine.so.0.6:_ZNK9SymEngine10Unequality6createERKNS_3RCPIKNS_5BasicEEES6_
libsymengine.so.0.6:_ZNK9SymEngine10UpperGamma12is_canonicalERKNS_3RCPIKNS_5BasicEEES6_
libsymengine.so.0.6:_ZNK9SymEngine10UpperGamma6acceptERNS_26EvalRealDoubleVisitorFinalE
libsymengine.so.0.6:_ZNK9SymEngine10UpperGamma6acceptERNS_7VisitorE
libsymengine.so.0.6:_ZNK9SymEngine10UpperGamma6createERKNS_3RCPIKNS_5BasicEEES6_
libsymengine.so.0.6:_ZNK9SymEngine11BooleanAtom11logical_notEv
libsymengine.so.0.6:_ZNK9SymEngine11BooleanAtom6__eq__ERKNS_5BasicE
libsymengine.so.0.6:_ZNK9SymEngine11BooleanAtom6acceptERNS_26EvalRealDoubleVisitorFinalE
libsymengine.so.0.6:_ZNK9SymEngine11BooleanAtom6acceptERNS_7VisitorE
libsymengine.so.0.6:_ZNK9SymEngine11BooleanAtom7compareERKNS_5BasicE
libsymengine.so.0.6:_ZNK9SymEngine11BooleanAtom7get_valEv
libsymengine.so.0.6:_ZNK9SymEngine11BooleanAtom8__hash__Ev
libsymengine.so.0.6:_ZNK9SymEngine11BooleanAtom8get_argsEv
libsymengine.so.0.6:_ZNK9SymEngine11ComplexBase10is_re_zeroEv
libsymengine.so.0.6:_ZNK9SymEngine11DenseMatrix10add_matrixERKNS_10MatrixBaseERS1_
libsymengine.so.0.6:_ZNK9SymEngine11DenseMatrix10add_scalarERKNS_3RCPIKNS_5BasicEEERNS_10MatrixBaseE
libsymengine.so.0.6:_ZNK9SymEngine11DenseMatrix10mul_matrixERKNS_10MatrixBaseERS1_
libsymengine.so.0.6:_ZNK9SymEngine11DenseMatrix10mul_scalarERKNS_3RCPIKNS_5BasicEEERNS_10MatrixBaseE
libsymengine.so.0.6:_ZNK9SymEngine11DenseMatrix12as_vec_basicEv
libsymengine.so.0.6:_ZNK9SymEngine11DenseMatrix2LUERNS_10MatrixBaseES2_
libsymengine.so.0.6:_ZNK9SymEngine11DenseMatrix2QRERNS_10MatrixBaseES2_
libsymengine.so.0.6:_ZNK9SymEngine11DenseMatrix3LDLERNS_10MatrixBaseES2_
libsymengine.so.0.6:_ZNK9SymEngine11DenseMatrix3detEv
libsymengine.so.0.6:_ZNK9SymEngine11DenseMatrix3getEjj
libsymengine.so.0.6:_ZNK9SymEngine11DenseMatrix3invERNS_10MatrixBaseE
libsymengine.so.0.6:_ZNK9SymEngine11DenseMatrix4FFLUERNS_10MatrixBaseE
libsymengine.so.0.6:_ZNK9SymEngine11DenseMatrix4rankEv
libsymengine.so.0.6:_ZNK9SymEngine11DenseMatrix5FFLDUERNS_10MatrixBaseES2_S2_
libsymengine.so.0.6:_ZNK9SymEngine11DenseMatrix8LU_solveERKNS_10MatrixBaseERS1_
libsymengine.so.0.6:_ZNK9SymEngine11DenseMatrix8choleskyERNS_10MatrixBaseE
libsymengine.so.0.6:_ZNK9SymEngine11DenseMatrix9submatrixERNS_10MatrixBaseEjjjjjj
libsymengine.so.0.6:_ZNK9SymEngine11DenseMatrix9transposeERNS_10MatrixBaseE
libsymengine.so.0.6:_ZNK9SymEngine11GaloisField12is_canonicalERKNS_15GaloisFieldDictE
libsymengine.so.0.6:_ZNK9SymEngine11GaloisField6acceptERNS_26EvalRealDoubleVisitorFinalE
libsymengine.so.0.6:_ZNK9SymEngine11GaloisField6acceptERNS_7VisitorE
libsymengine.so.0.6:_ZNK9SymEngine11GaloisField7compareERKNS_5BasicE
libsymengine.so.0.6:_ZNK9SymEngine11GaloisField8__hash__Ev
libsymengine.so.0.6:_ZNK9SymEngine11GaloisField8get_argsEv
libsymengine.so.0.6:_ZNK9SymEngine12ConditionSet14set_complementERKNS_3RCPIKNS_3SetEEE
libsymengine.so.0.6:_ZNK9SymEngine12ConditionSet16set_intersectionERKNS_3RCPIKNS_3SetEEE
libsymengine.so.0.6:_ZNK9SymEngine12ConditionSet6__eq__ERKNS_5BasicE
libsymengine.so.0.6:_ZNK9SymEngine12ConditionSet6acceptERNS_26EvalRealDoubleVisitorFinalE
libsymengine.so.0.6:_ZNK9SymEngine12ConditionSet6acceptERNS_7VisitorE
libsymengine.so.0.6:_ZNK9SymEngine12ConditionSet7compareERKNS_5BasicE
libsymengine.so.0.6:_ZNK9SymEngine12ConditionSet8__hash__Ev
libsymengine.so.0.6:_ZNK9SymEngine12ConditionSet8containsERKNS_3RCPIKNS_5BasicEEE
libsymengine.so.0.6:_ZNK9SymEngine12ConditionSet9set_unionERKNS_3RCPIKNS_3SetEEE
libsymengine.so.0.6:_ZNK9SymEngine12UniversalSet14set_complementERKNS_3RCPIKNS_3SetEEE
libsymengine.so.0.6:_ZNK9SymEngine12UniversalSet16set_intersectionERKNS_3RCPIKNS_3SetEEE
libsymengine.so.0.6:_ZNK9SymEngine12UniversalSet6__eq__ERKNS_5BasicE
libsymengine.so.0.6:_ZNK9SymEngine12UniversalSet6acceptERNS_26EvalRealDoubleVisitorFinalE
libsymengine.so.0.6:_ZNK9SymEngine12UniversalSet6acceptERNS_7VisitorE
libsymengine.so.0.6:_ZNK9SymEngine12UniversalSet7compareERKNS_5BasicE
libsymengine.so.0.6:_ZNK9SymEngine12UniversalSet8__hash__Ev
libsymengine.so.0.6:_ZNK9SymEngine12UniversalSet9set_unionERKNS_3RCPIKNS_3SetEEE
libsymengine.so.0.6:_ZNK9SymEngine13ComplexDouble14imaginary_partEv
libsymengine.so.0.6:_ZNK9SymEngine13ComplexDouble6__eq__ERKNS_5BasicE
libsymengine.so.0.6:_ZNK9SymEngine13ComplexDouble6acceptERNS_26EvalRealDoubleVisitorFinalE
libsymengine.so.0.6:_ZNK9SymEngine13ComplexDouble6acceptERNS_7VisitorE
libsymengine.so.0.6:_ZNK9SymEngine13ComplexDouble7compareERKNS_5BasicE
libsymengine.so.0.6:_ZNK9SymEngine13ComplexDouble8__hash__Ev
libsymengine.so.0.6:_ZNK9SymEngine13ComplexDouble8get_evalEv
libsymengine.so.0.6:_ZNK9SymEngine13ComplexDouble9conjugateEv
libsymengine.so.0.6:_ZNK9SymEngine13ComplexDouble9real_partEv
libsymengine.so.0.6:_ZNK9SymEngine13Dirichlet_eta12is_canonicalERKNS_3RCPIKNS_5BasicEEE
libsymengine.so.0.6:_ZNK9SymEngine13Dirichlet_eta15rewrite_as_zetaEv
libsymengine.so.0.6:_ZNK9SymEngine13Dirichlet_eta6acceptERNS_26EvalRealDoubleVisitorFinalE
libsymengine.so.0.6:_ZNK9SymEngine13Dirichlet_eta6acceptERNS_7VisitorE
libsymengine.so.0.6:_ZNK9SymEngine13Dirichlet_eta6createERKNS_3RCPIKNS_5BasicEEE
libsymengine.so.0.6:_ZNK9SymEngine13NumberWrapper6acceptERNS_26EvalRealDoubleVisitorFinalE
libsymengine.so.0.6:_ZNK9SymEngine13NumberWrapper6acceptERNS_7VisitorE
libsymengine.so.0.6:_ZNK9SymEngine14FunctionSymbol12is_canonicalERKSt6vectorINS_3RCPIKNS_5BasicEEESaIS5_EE
libsymengine.so.0.6:_ZNK9SymEngine14FunctionSymbol6__eq__ERKNS_5BasicE
libsymengine.so.0.6:_ZNK9SymEngine14FunctionSymbol6acceptERNS_26EvalRealDoubleVisitorFinalE
libsymengine.so.0.6:_ZNK9SymEngine14FunctionSymbol6acceptERNS_7VisitorE
libsymengine.so.0.6:_ZNK9SymEngine14FunctionSymbol6createERKSt6vectorINS_3RCPIKNS_5BasicEEESaIS5_EE
libsymengine.so.0.6:_ZNK9SymEngine14FunctionSymbol7compareERKNS_5BasicE
libsymengine.so.0.6:_ZNK9SymEngine14FunctionSymbol8__hash__Ev
libsymengine.so.0.6:_ZNK9SymEngine14KroneckerDelta12is_canonicalERKNS_3RCPIKNS_5BasicEEES6_
libsymengine.so.0.6:_ZNK9SymEngine14KroneckerDelta6acceptERNS_26EvalRealDoubleVisitorFinalE
libsymengine.so.0.6:_ZNK9SymEngine14KroneckerDelta6acceptERNS_7VisitorE
libsymengine.so.0.6:_ZNK9SymEngine14KroneckerDelta6createERKNS_3RCPIKNS_5BasicEEES6_
libsymengine.so.0.6:_ZNK9SymEngine14StrictLessThan11logical_notEv
libsymengine.so.0.6:_ZNK9SymEngine14StrictLessThan6acceptERNS_26EvalRealDoubleVisitorFinalE
libsymengine.so.0.6:_ZNK9SymEngine14StrictLessThan6acceptERNS_7VisitorE
libsymengine.so.0.6:_ZNK9SymEngine14StrictLessThan6createERKNS_3RCPIKNS_5BasicEEES6_
libsymengine.so.0.6:_ZNK9SymEngine15FunctionWrapper6acceptERNS_26EvalRealDoubleVisitorFinalE
libsymengine.so.0.6:_ZNK9SymEngine15FunctionWrapper6acceptERNS_7VisitorE
libsymengine.so.0.6:_ZNK9SymEngine15GaloisFieldDict10gf_pow_modERKS0_RKm
libsymengine.so.0.6:_ZNK9SymEngine15GaloisFieldDict11gf_sqf_listEv
libsymengine.so.0.6:_ZNK9SymEngine15GaloisFieldDict11gf_sqf_partEv
libsymengine.so.0.6:_ZNK9SymEngine15GaloisFieldDict12gf_ddf_shoupEv
libsymengine.so.0.6:_ZNK9SymEngine15GaloisFieldDict12gf_edf_shoupERKj
libsymengine.so.0.6:_ZNK9SymEngine15GaloisFieldDict12gf_trace_mapERKS0_S2_S2_RKm
libsymengine.so.0.6:_ZNK9SymEngine15GaloisFieldDict13_gf_trace_mapERKS0_RKmRKSt6vectorIS0_SaIS0_EE
libsymengine.so.0.6:_ZNK9SymEngine15GaloisFieldDict13gf_multi_evalERKSt6vectorINS_11mpz_wrapperESaIS2_EE
libsymengine.so.0.6:_ZNK9SymEngine15GaloisFieldDict13gf_zassenhausEv
libsymengine.so.0.6:_ZNK9SymEngine15GaloisFieldDict14_gf_pow_pnm1d2ERKS0_RKjRKSt6vectorIS0_SaIS0_EE
libsymengine.so.0.6:_ZNK9SymEngine15GaloisFieldDict14gf_compose_modERKS0_S2_
libsymengine.so.0.6:_ZNK9SymEngine15GaloisFieldDict16gf_frobenius_mapERKS0_RKSt6vectorIS0_SaIS0_EE
libsymengine.so.0.6:_ZNK9SymEngine15GaloisFieldDict17gf_ddf_zassenhausEv
libsymengine.so.0.6:_ZNK9SymEngine15GaloisFieldDict17gf_edf_zassenhausERKj
libsymengine.so.0.6:_ZNK9SymEngine15GaloisFieldDict26gf_frobenius_monomial_baseEv
libsymengine.so.0.6:_ZNK9SymEngine15GaloisFieldDict6gf_divERKS0_RKNS_3PtrIS0_EES6_
libsymengine.so.0.6:_ZNK9SymEngine15GaloisFieldDict6gf_gcdERKS0_
libsymengine.so.0.6:_ZNK9SymEngine15GaloisFieldDict6gf_lcmERKS0_
libsymengine.so.0.6:_ZNK9SymEngine15GaloisFieldDict6gf_powEm
libsymengine.so.0.6:_ZNK9SymEngine15GaloisFieldDict6gf_sqrEv
libsymengine.so.0.6:_ZNK9SymEngine15GaloisFieldDict7gf_diffEv
libsymengine.so.0.6:_ZNK9SymEngine15GaloisFieldDict7gf_evalERKNS_11mpz_wrapperE
libsymengine.so.0.6:_ZNK9SymEngine15GaloisFieldDict8gf_monicERNS_11mpz_wrapperERKNS_3PtrIS0_EE
libsymengine.so.0.6:_ZNK9SymEngine15GaloisFieldDict8gf_shoupEv
libsymengine.so.0.6:_ZNK9SymEngine15GaloisFieldDict9gf_factorEv
libsymengine.so.0.6:_ZNK9SymEngine15GaloisFieldDict9gf_is_sqfEv
libsymengine.so.0.6:_ZNK9SymEngine15GaloisFieldDict9gf_lshiftENS_11mpz_wrapperE
libsymengine.so.0.6:_ZNK9SymEngine15GaloisFieldDict9gf_randomERKjRNS_12mp_randstateE
libsymengine.so.0.6:_ZNK9SymEngine15GaloisFieldDict9gf_rshiftENS_11mpz_wrapperERKNS_3PtrIS0_EES5_
libsymengine.so.0.6:_ZNK9SymEngine16UnivariateSeries6acceptERNS_26EvalRealDoubleVisitorFinalE
libsymengine.so.0.6:_ZNK9SymEngine16UnivariateSeries6acceptERNS_7VisitorE
libsymengine.so.0.6:_ZNK9SymEngine16UnivariateSeries7as_dictEv
libsymengine.so.0.6:_ZNK9SymEngine16UnivariateSeries7compareERKNS_5BasicE
libsymengine.so.0.6:_ZNK9SymEngine16UnivariateSeries8__hash__Ev
libsymengine.so.0.6:_ZNK9SymEngine16UnivariateSeries8as_basicEv
libsymengine.so.0.6:_ZNK9SymEngine16UnivariateSeries9get_coeffEi
libsymengine.so.0.6:_ZNK9SymEngine2Or11logical_notEv
libsymengine.so.0.6:_ZNK9SymEngine2Or13get_containerEv
libsymengine.so.0.6:_ZNK9SymEngine2Or6__eq__ERKNS_5BasicE
libsymengine.so.0.6:_ZNK9SymEngine2Or6acceptERNS_26EvalRealDoubleVisitorFinalE
libsymengine.so.0.6:_ZNK9SymEngine2Or6acceptERNS_7VisitorE
libsymengine.so.0.6:_ZNK9SymEngine2Or7compareERKNS_5BasicE
libsymengine.so.0.6:_ZNK9SymEngine2Or8__hash__Ev
libsymengine.so.0.6:_ZNK9SymEngine2Or8get_argsEv
libsymengine.so.0.6:_ZNK9SymEngine3Abs12is_canonicalERKNS_3RCPIKNS_5BasicEEE
libsymengine.so.0.6:_ZNK9SymEngine3Abs6acceptERNS_26EvalRealDoubleVisitorFinalE
libsymengine.so.0.6:_ZNK9SymEngine3Abs6acceptERNS_7VisitorE
libsymengine.so.0.6:_ZNK9SymEngine3Abs6createERKNS_3RCPIKNS_5BasicEEE
libsymengine.so.0.6:_ZNK9SymEngine3Add12as_two_termsERKNS_3PtrINS_3RCPIKNS_5BasicEEEEES8_
libsymengine.so.0.6:_ZNK9SymEngine3Add12is_canonicalERKNS_3RCPIKNS_6NumberEEERKSt13unordered_mapINS1_IKNS_5BasicEEES4_NS_12RCPBasicHashENS_13RCPBasicKeyEqESaISt4pairIKSA_S4_EEE
libsymengine.so.0.6:_ZNK9SymEngine3Add6__eq__ERKNS_5BasicE
libsymengine.so.0.6:_ZNK9SymEngine3Add6acceptERNS_26EvalRealDoubleVisitorFinalE
libsymengine.so.0.6:_ZNK9SymEngine3Add6acceptERNS_7VisitorE
libsymengine.so.0.6:_ZNK9SymEngine3Add7compareERKNS_5BasicE
libsymengine.so.0.6:_ZNK9SymEngine3Add8__hash__Ev
libsymengine.so.0.6:_ZNK9SymEngine3Add8get_argsEv
libsymengine.so.0.6:_ZNK9SymEngine3And11logical_notEv
libsymengine.so.0.6:_ZNK9SymEngine3And13get_containerEv
libsymengine.so.0.6:_ZNK9SymEngine3And6__eq__ERKNS_5BasicE
libsymengine.so.0.6:_ZNK9SymEngine3And6acceptERNS_26EvalRealDoubleVisitorFinalE
libsymengine.so.0.6:_ZNK9SymEngine3And6acceptERNS_7VisitorE
libsymengine.so.0.6:_ZNK9SymEngine3And6createERKSt3setINS_3RCPIKNS_7BooleanEEENS_15RCPBasicKeyLessESaIS5_EE
libsymengine.so.0.6:_ZNK9SymEngine3And7compareERKNS_5BasicE
libsymengine.so.0.6:_ZNK9SymEngine3And8__hash__Ev
libsymengine.so.0.6:_ZNK9SymEngine3And8get_argsEv
libsymengine.so.0.6:_ZNK9SymEngine3Cos12is_canonicalERKNS_3RCPIKNS_5BasicEEE
libsymengine.so.0.6:_ZNK9SymEngine3Cos6acceptERNS_26EvalRealDoubleVisitorFinalE
libsymengine.so.0.6:_ZNK9SymEngine3Cos6acceptERNS_7VisitorE
libsymengine.so.0.6:_ZNK9SymEngine3Cos6createERKNS_3RCPIKNS_5BasicEEE
libsymengine.so.0.6:_ZNK9SymEngine3Cot12is_canonicalERKNS_3RCPIKNS_5BasicEEE
libsymengine.so.0.6:_ZNK9SymEngine3Cot6acceptERNS_26EvalRealDoubleVisitorFinalE
libsymengine.so.0.6:_ZNK9SymEngine3Cot6acceptERNS_7VisitorE
libsymengine.so.0.6:_ZNK9SymEngine3Cot6createERKNS_3RCPIKNS_5BasicEEE
libsymengine.so.0.6:_ZNK9SymEngine3Csc12is_canonicalERKNS_3RCPIKNS_5BasicEEE
libsymengine.so.0.6:_ZNK9SymEngine3Csc6acceptERNS_26EvalRealDoubleVisitorFinalE
libsymengine.so.0.6:_ZNK9SymEngine3Csc6acceptERNS_7VisitorE
libsymengine.so.0.6:_ZNK9SymEngine3Csc6createERKNS_3RCPIKNS_5BasicEEE
libsymengine.so.0.6:_ZNK9SymEngine3Erf12is_canonicalERKNS_3RCPIKNS_5BasicEEE
libsymengine.so.0.6:_ZNK9SymEngine3Erf6acceptERNS_26EvalRealDoubleVisitorFinalE
libsymengine.so.0.6:_ZNK9SymEngine3Erf6acceptERNS_7VisitorE
libsymengine.so.0.6:_ZNK9SymEngine3Erf6createERKNS_3RCPIKNS_5BasicEEE
libsymengine.so.0.6:_ZNK9SymEngine3Log12is_canonicalERKNS_3RCPIKNS_5BasicEEE
libsymengine.so.0.6:_ZNK9SymEngine3Log6acceptERNS_26EvalRealDoubleVisitorFinalE
libsymengine.so.0.6:_ZNK9SymEngine3Log6acceptERNS_7VisitorE
libsymengine.so.0.6:_ZNK9SymEngine3Log6createERKNS_3RCPIKNS_5BasicEEE
libsymengine.so.0.6:_ZNK9SymEngine3Max12is_canonicalERKSt6vectorINS_3RCPIKNS_5BasicEEESaIS5_EE
libsymengine.so.0.6:_ZNK9SymEngine3Max6acceptERNS_26EvalRealDoubleVisitorFinalE
libsymengine.so.0.6:_ZNK9SymEngine3Max6acceptERNS_7VisitorE
libsymengine.so.0.6:_ZNK9SymEngine3Max6createERKSt6vectorINS_3RCPIKNS_5BasicEEESaIS5_EE
libsymengine.so.0.6:_ZNK9SymEngine3Min12is_canonicalERKSt6vectorINS_3RCPIKNS_5BasicEEESaIS5_EE
libsymengine.so.0.6:_ZNK9SymEngine3Min6acceptERNS_26EvalRealDoubleVisitorFinalE
libsymengine.so.0.6:_ZNK9SymEngine3Min6acceptERNS_7VisitorE
libsymengine.so.0.6:_ZNK9SymEngine3Min6createERKSt6vectorINS_3RCPIKNS_5BasicEEESaIS5_EE
libsymengine.so.0.6:_ZNK9SymEngine3Mul12as_two_termsERKNS_3PtrINS_3RCPIKNS_5BasicEEEEES8_
libsymengine.so.0.6:_ZNK9SymEngine3Mul12is_canonicalERKNS_3RCPIKNS_6NumberEEERKSt3mapINS1_IKNS_5BasicEEESA_NS_15RCPBasicKeyLessESaISt4pairIKSA_SA_EEE
libsymengine.so.0.6:_ZNK9SymEngine3Mul6__eq__ERKNS_5BasicE
libsymengine.so.0.6:_ZNK9SymEngine3Mul6acceptERNS_26EvalRealDoubleVisitorFinalE
libsymengine.so.0.6:_ZNK9SymEngine3Mul6acceptERNS_7VisitorE
libsymengine.so.0.6:_ZNK9SymEngine3Mul7compareERKNS_5BasicE
libsymengine.so.0.6:_ZNK9SymEngine3Mul8__hash__Ev
libsymengine.so.0.6:_ZNK9SymEngine3Mul8get_argsEv
libsymengine.so.0.6:_ZNK9SymEngine3Mul9power_numERKNS_3PtrINS_3RCPIKNS_6NumberEEEEERSt3mapINS2_IKNS_5BasicEEESC_NS_15RCPBasicKeyLessESaISt4pairIKSC_SC_EEERKS5_
libsymengine.so.0.6:_ZNK9SymEngine3NaN3addERKNS_6NumberE
libsymengine.so.0.6:_ZNK9SymEngine3NaN3divERKNS_6NumberE
libsymengine.so.0.6:_ZNK9SymEngine3NaN3mulERKNS_6NumberE
libsymengine.so.0.6:_ZNK9SymEngine3NaN3powERKNS_6NumberE
libsymengine.so.0.6:_ZNK9SymEngine3NaN4rpowERKNS_6NumberE
libsymengine.so.0.6:_ZNK9SymEngine3NaN6__eq__ERKNS_5BasicE
libsymengine.so.0.6:_ZNK9SymEngine3NaN6acceptERNS_26EvalRealDoubleVisitorFinalE
libsymengine.so.0.6:_ZNK9SymEngine3NaN6acceptERNS_7VisitorE
libsymengine.so.0.6:_ZNK9SymEngine3NaN7compareERKNS_5BasicE
libsymengine.so.0.6:_ZNK9SymEngine3NaN8__hash__Ev
libsymengine.so.0.6:_ZNK9SymEngine3NaN8get_evalEv
libsymengine.so.0.6:_ZNK9SymEngine3NaN9conjugateEv
libsymengine.so.0.6:_ZNK9SymEngine3Not11logical_notEv
libsymengine.so.0.6:_ZNK9SymEngine3Not6__eq__ERKNS_5BasicE
libsymengine.so.0.6:_ZNK9SymEngine3Not6acceptERNS_26EvalRealDoubleVisitorFinalE
libsymengine.so.0.6:_ZNK9SymEngine3Not6acceptERNS_7VisitorE
libsymengine.so.0.6:_ZNK9SymEngine3Not7compareERKNS_5BasicE
libsymengine.so.0.6:_ZNK9SymEngine3Not7get_argEv
libsymengine.so.0.6:_ZNK9SymEngine3Not8__hash__Ev
libsymengine.so.0.6:_ZNK9SymEngine3Not8get_argsEv
libsymengine.so.0.6:_ZNK9SymEngine3Pow12is_canonicalERKNS_5BasicES3_
libsymengine.so.0.6:_ZNK9SymEngine3Pow6__eq__ERKNS_5BasicE
libsymengine.so.0.6:_ZNK9SymEngine3Pow6acceptERNS_26EvalRealDoubleVisitorFinalE
libsymengine.so.0.6:_ZNK9SymEngine3Pow6acceptERNS_7VisitorE
libsymengine.so.0.6:_ZNK9SymEngine3Pow7compareERKNS_5BasicE
libsymengine.so.0.6:_ZNK9SymEngine3Pow8__hash__Ev
libsymengine.so.0.6:_ZNK9SymEngine3Pow8get_argsEv
libsymengine.so.0.6:_ZNK9SymEngine3Sec12is_canonicalERKNS_3RCPIKNS_5BasicEEE
libsymengine.so.0.6:_ZNK9SymEngine3Sec6acceptERNS_26EvalRealDoubleVisitorFinalE
libsymengine.so.0.6:_ZNK9SymEngine3Sec6acceptERNS_7VisitorE
libsymengine.so.0.6:_ZNK9SymEngine3Sec6createERKNS_3RCPIKNS_5BasicEEE
libsymengine.so.0.6:_ZNK9SymEngine3Sin12is_canonicalERKNS_3RCPIKNS_5BasicEEE
libsymengine.so.0.6:_ZNK9SymEngine3Sin6acceptERNS_26EvalRealDoubleVisitorFinalE
libsymengine.so.0.6:_ZNK9SymEngine3Sin6acceptERNS_7VisitorE
libsymengine.so.0.6:_ZNK9SymEngine3Sin6createERKNS_3RCPIKNS_5BasicEEE
libsymengine.so.0.6:_ZNK9SymEngine3Tan12is_canonicalERKNS_3RCPIKNS_5BasicEEE
libsymengine.so.0.6:_ZNK9SymEngine3Tan6acceptERNS_26EvalRealDoubleVisitorFinalE
libsymengine.so.0.6:_ZNK9SymEngine3Tan6acceptERNS_7VisitorE
libsymengine.so.0.6:_ZNK9SymEngine3Tan6createERKNS_3RCPIKNS_5BasicEEE
libsymengine.so.0.6:_ZNK9SymEngine3Xor13get_containerEv
libsymengine.so.0.6:_ZNK9SymEngine3Xor6__eq__ERKNS_5BasicE
libsymengine.so.0.6:_ZNK9SymEngine3Xor6acceptERNS_26EvalRealDoubleVisitorFinalE
libsymengine.so.0.6:_ZNK9SymEngine3Xor6acceptERNS_7VisitorE
libsymengine.so.0.6:_ZNK9SymEngine3Xor7compareERKNS_5BasicE
libsymengine.so.0.6:_ZNK9SymEngine3Xor8__hash__Ev
libsymengine.so.0.6:_ZNK9SymEngine3Xor8get_argsEv
libsymengine.so.0.6:_ZNK9SymEngine4ACos12is_canonicalERKNS_3RCPIKNS_5BasicEEE
libsymengine.so.0.6:_ZNK9SymEngine4ACos6acceptERNS_26EvalRealDoubleVisitorFinalE
libsymengine.so.0.6:_ZNK9SymEngine4ACos6acceptERNS_7VisitorE
libsymengine.so.0.6:_ZNK9SymEngine4ACos6createERKNS_3RCPIKNS_5BasicEEE
libsymengine.so.0.6:_ZNK9SymEngine4ACot12is_canonicalERKNS_3RCPIKNS_5BasicEEE
libsymengine.so.0.6:_ZNK9SymEngine4ACot6acceptERNS_26EvalRealDoubleVisitorFinalE
libsymengine.so.0.6:_ZNK9SymEngine4ACot6acceptERNS_7VisitorE
libsymengine.so.0.6:_ZNK9SymEngine4ACot6createERKNS_3RCPIKNS_5BasicEEE
libsymengine.so.0.6:_ZNK9SymEngine4ACsc12is_canonicalERKNS_3RCPIKNS_5BasicEEE
libsymengine.so.0.6:_ZNK9SymEngine4ACsc6acceptERNS_26EvalRealDoubleVisitorFinalE
libsymengine.so.0.6:_ZNK9SymEngine4ACsc6acceptERNS_7VisitorE
libsymengine.so.0.6:_ZNK9SymEngine4ACsc6createERKNS_3RCPIKNS_5BasicEEE
libsymengine.so.0.6:_ZNK9SymEngine4ASec12is_canonicalERKNS_3RCPIKNS_5BasicEEE
libsymengine.so.0.6:_ZNK9SymEngine4ASec6acceptERNS_26EvalRealDoubleVisitorFinalE
libsymengine.so.0.6:_ZNK9SymEngine4ASec6acceptERNS_7VisitorE
libsymengine.so.0.6:_ZNK9SymEngine4ASec6createERKNS_3RCPIKNS_5BasicEEE
libsymengine.so.0.6:_ZNK9SymEngine4ASin12is_canonicalERKNS_3RCPIKNS_5BasicEEE
libsymengine.so.0.6:_ZNK9SymEngine4ASin6acceptERNS_26EvalRealDoubleVisitorFinalE
libsymengine.so.0.6:_ZNK9SymEngine4ASin6acceptERNS_7VisitorE
libsymengine.so.0.6:_ZNK9SymEngine4ASin6createERKNS_3RCPIKNS_5BasicEEE
libsymengine.so.0.6:_ZNK9SymEngine4ATan12is_canonicalERKNS_3RCPIKNS_5BasicEEE
libsymengine.so.0.6:_ZNK9SymEngine4ATan6acceptERNS_26EvalRealDoubleVisitorFinalE
libsymengine.so.0.6:_ZNK9SymEngine4ATan6acceptERNS_7VisitorE
libsymengine.so.0.6:_ZNK9SymEngine4ATan6createERKNS_3RCPIKNS_5BasicEEE
libsymengine.so.0.6:_ZNK9SymEngine4Beta16rewrite_as_gammaEv
libsymengine.so.0.6:_ZNK9SymEngine4Beta6acceptERNS_26EvalRealDoubleVisitorFinalE
libsymengine.so.0.6:_ZNK9SymEngine4Beta6acceptERNS_7VisitorE
libsymengine.so.0.6:_ZNK9SymEngine4Beta6createERKNS_3RCPIKNS_5BasicEEES6_
libsymengine.so.0.6:_ZNK9SymEngine4Cosh12is_canonicalERKNS_3RCPIKNS_5BasicEEE
libsymengine.so.0.6:_ZNK9SymEngine4Cosh6acceptERNS_26EvalRealDoubleVisitorFinalE
libsymengine.so.0.6:_ZNK9SymEngine4Cosh6acceptERNS_7VisitorE
libsymengine.so.0.6:_ZNK9SymEngine4Cosh6createERKNS_3RCPIKNS_5BasicEEE
libsymengine.so.0.6:_ZNK9SymEngine4Coth12is_canonicalERKNS_3RCPIKNS_5BasicEEE
libsymengine.so.0.6:_ZNK9SymEngine4Coth6acceptERNS_26EvalRealDoubleVisitorFinalE
libsymengine.so.0.6:_ZNK9SymEngine4Coth6acceptERNS_7VisitorE
libsymengine.so.0.6:_ZNK9SymEngine4Coth6createERKNS_3RCPIKNS_5BasicEEE
libsymengine.so.0.6:_ZNK9SymEngine4Csch12is_canonicalERKNS_3RCPIKNS_5BasicEEE
libsymengine.so.0.6:_ZNK9SymEngine4Csch6acceptERNS_26EvalRealDoubleVisitorFinalE
libsymengine.so.0.6:_ZNK9SymEngine4Csch6acceptERNS_7VisitorE
libsymengine.so.0.6:_ZNK9SymEngine4Csch6createERKNS_3RCPIKNS_5BasicEEE
libsymengine.so.0.6:_ZNK9SymEngine4Erfc12is_canonicalERKNS_3RCPIKNS_5BasicEEE
libsymengine.so.0.6:_ZNK9SymEngine4Erfc6acceptERNS_26EvalRealDoubleVisitorFinalE
libsymengine.so.0.6:_ZNK9SymEngine4Erfc6acceptERNS_7VisitorE
libsymengine.so.0.6:_ZNK9SymEngine4Erfc6createERKNS_3RCPIKNS_5BasicEEE
libsymengine.so.0.6:_ZNK9SymEngine4Sech12is_canonicalERKNS_3RCPIKNS_5BasicEEE
libsymengine.so.0.6:_ZNK9SymEngine4Sech6acceptERNS_26EvalRealDoubleVisitorFinalE
libsymengine.so.0.6:_ZNK9SymEngine4Sech6acceptERNS_7VisitorE
libsymengine.so.0.6:_ZNK9SymEngine4Sech6createERKNS_3RCPIKNS_5BasicEEE
libsymengine.so.0.6:_ZNK9SymEngine4Sign12is_canonicalERKNS_3RCPIKNS_5BasicEEE
libsymengine.so.0.6:_ZNK9SymEngine4Sign6acceptERNS_26EvalRealDoubleVisitorFinalE
libsymengine.so.0.6:_ZNK9SymEngine4Sign6acceptERNS_7VisitorE
libsymengine.so.0.6:_ZNK9SymEngine4Sign6createERKNS_3RCPIKNS_5BasicEEE
libsymengine.so.0.6:_ZNK9SymEngine4Sinh12is_canonicalERKNS_3RCPIKNS_5BasicEEE
libsymengine.so.0.6:_ZNK9SymEngine4Sinh6acceptERNS_26EvalRealDoubleVisitorFinalE
libsymengine.so.0.6:_ZNK9SymEngine4Sinh6acceptERNS_7VisitorE
libsymengine.so.0.6:_ZNK9SymEngine4Sinh6createERKNS_3RCPIKNS_5BasicEEE
libsymengine.so.0.6:_ZNK9SymEngine4Subs12is_canonicalERKNS_3RCPIKNS_5BasicEEERKSt3mapIS4_S4_NS_15RCPBasicKeyLessESaISt4pairIS5_S4_EEE
libsymengine.so.0.6:_ZNK9SymEngine4Subs13get_variablesEv
libsymengine.so.0.6:_ZNK9SymEngine4Subs6__eq__ERKNS_5BasicE
libsymengine.so.0.6:_ZNK9SymEngine4Subs6acceptERNS_26EvalRealDoubleVisitorFinalE
libsymengine.so.0.6:_ZNK9SymEngine4Subs6acceptERNS_7VisitorE
libsymengine.so.0.6:_ZNK9SymEngine4Subs7compareERKNS_5BasicE
libsymengine.so.0.6:_ZNK9SymEngine4Subs8__hash__Ev
libsymengine.so.0.6:_ZNK9SymEngine4Subs8get_argsEv
libsymengine.so.0.6:_ZNK9SymEngine4Subs9get_pointEv
libsymengine.so.0.6:_ZNK9SymEngine4Tanh12is_canonicalERKNS_3RCPIKNS_5BasicEEE
libsymengine.so.0.6:_ZNK9SymEngine4Tanh6acceptERNS_26EvalRealDoubleVisitorFinalE
libsymengine.so.0.6:_ZNK9SymEngine4Tanh6acceptERNS_7VisitorE
libsymengine.so.0.6:_ZNK9SymEngine4Tanh6createERKNS_3RCPIKNS_5BasicEEE
libsymengine.so.0.6:_ZNK9SymEngine4Zeta12is_canonicalERKNS_3RCPIKNS_5BasicEEES6_
libsymengine.so.0.6:_ZNK9SymEngine4Zeta6acceptERNS_26EvalRealDoubleVisitorFinalE
libsymengine.so.0.6:_ZNK9SymEngine4Zeta6acceptERNS_7VisitorE
libsymengine.so.0.6:_ZNK9SymEngine4Zeta6createERKNS_3RCPIKNS_5BasicEEES6_
libsymengine.so.0.6:_ZNK9SymEngine5ACosh12is_canonicalERKNS_3RCPIKNS_5BasicEEE
libsymengine.so.0.6:_ZNK9SymEngine5ACosh6acceptERNS_26EvalRealDoubleVisitorFinalE
libsymengine.so.0.6:_ZNK9SymEngine5ACosh6acceptERNS_7VisitorE
libsymengine.so.0.6:_ZNK9SymEngine5ACosh6createERKNS_3RCPIKNS_5BasicEEE
libsymengine.so.0.6:_ZNK9SymEngine5ACoth12is_canonicalERKNS_3RCPIKNS_5BasicEEE
libsymengine.so.0.6:_ZNK9SymEngine5ACoth6acceptERNS_26EvalRealDoubleVisitorFinalE
libsymengine.so.0.6:_ZNK9SymEngine5ACoth6acceptERNS_7VisitorE
libsymengine.so.0.6:_ZNK9SymEngine5ACoth6createERKNS_3RCPIKNS_5BasicEEE
libsymengine.so.0.6:_ZNK9SymEngine5ACsch12is_canonicalERKNS_3RCPIKNS_5BasicEEE
libsymengine.so.0.6:_ZNK9SymEngine5ACsch6acceptERNS_26EvalRealDoubleVisitorFinalE
libsymengine.so.0.6:_ZNK9SymEngine5ACsch6acceptERNS_7VisitorE
libsymengine.so.0.6:_ZNK9SymEngine5ACsch6createERKNS_3RCPIKNS_5BasicEEE
libsymengine.so.0.6:_ZNK9SymEngine5ASech12is_canonicalERKNS_3RCPIKNS_5BasicEEE
libsymengine.so.0.6:_ZNK9SymEngine5ASech6acceptERNS_26EvalRealDoubleVisitorFinalE
libsymengine.so.0.6:_ZNK9SymEngine5ASech6acceptERNS_7VisitorE
libsymengine.so.0.6:_ZNK9SymEngine5ASech6createERKNS_3RCPIKNS_5BasicEEE
libsymengine.so.0.6:_ZNK9SymEngine5ASinh12is_canonicalERKNS_3RCPIKNS_5BasicEEE
libsymengine.so.0.6:_ZNK9SymEngine5ASinh6acceptERNS_26EvalRealDoubleVisitorFinalE
libsymengine.so.0.6:_ZNK9SymEngine5ASinh6acceptERNS_7VisitorE
libsymengine.so.0.6:_ZNK9SymEngine5ASinh6createERKNS_3RCPIKNS_5BasicEEE
libsymengine.so.0.6:_ZNK9SymEngine5ATan212is_canonicalERKNS_3RCPIKNS_5BasicEEES6_
libsymengine.so.0.6:_ZNK9SymEngine5ATan26acceptERNS_26EvalRealDoubleVisitorFinalE
libsymengine.so.0.6:_ZNK9SymEngine5ATan26acceptERNS_7VisitorE
libsymengine.so.0.6:_ZNK9SymEngine5ATan26createERKNS_3RCPIKNS_5BasicEEES6_
libsymengine.so.0.6:_ZNK9SymEngine5ATanh12is_canonicalERKNS_3RCPIKNS_5BasicEEE
libsymengine.so.0.6:_ZNK9SymEngine5ATanh6acceptERNS_26EvalRealDoubleVisitorFinalE
libsymengine.so.0.6:_ZNK9SymEngine5ATanh6acceptERNS_7VisitorE
libsymengine.so.0.6:_ZNK9SymEngine5ATanh6createERKNS_3RCPIKNS_5BasicEEE
libsymengine.so.0.6:_ZNK9SymEngine5Basic4diffERKNS_3RCPIKNS_6SymbolEEEb
libsymengine.so.0.6:_ZNK9SymEngine5Basic4subsERKSt3mapINS_3RCPIKS0_EES4_NS_15RCPBasicKeyLessESaISt4pairIKS4_S4_EEE
libsymengine.so.0.6:_ZNK9SymEngine5Basic7__cmp__ERKS0_
libsymengine.so.0.6:_ZNK9SymEngine5Basic7__str__B5cxx11Ev
libsymengine.so.0.6:_ZNK9SymEngine5Basic8xreplaceERKSt3mapINS_3RCPIKS0_EES4_NS_15RCPBasicKeyLessESaISt4pairIKS4_S4_EEE
libsymengine.so.0.6:_ZNK9SymEngine5Dummy6__eq__ERKNS_5BasicE
libsymengine.so.0.6:_ZNK9SymEngine5Dummy6acceptERNS_26EvalRealDoubleVisitorFinalE
libsymengine.so.0.6:_ZNK9SymEngine5Dummy6acceptERNS_7VisitorE
libsymengine.so.0.6:_ZNK9SymEngine5Dummy7compareERKNS_5BasicE
libsymengine.so.0.6:_ZNK9SymEngine5Dummy8__hash__Ev
libsymengine.so.0.6:_ZNK9SymEngine5Floor12is_canonicalERKNS_3RCPIKNS_5BasicEEE
libsymengine.so.0.6:_ZNK9SymEngine5Floor6acceptERNS_26EvalRealDoubleVisitorFinalE
libsymengine.so.0.6:_ZNK9SymEngine5Floor6acceptERNS_7VisitorE
libsymengine.so.0.6:_ZNK9SymEngine5Floor6createERKNS_3RCPIKNS_5BasicEEE
libsymengine.so.0.6:_ZNK9SymEngine5Gamma12is_canonicalERKNS_3RCPIKNS_5BasicEEE
libsymengine.so.0.6:_ZNK9SymEngine5Gamma6acceptERNS_26EvalRealDoubleVisitorFinalE
libsymengine.so.0.6:_ZNK9SymEngine5Gamma6acceptERNS_7VisitorE
libsymengine.so.0.6:_ZNK9SymEngine5Gamma6createERKNS_3RCPIKNS_5BasicEEE
libsymengine.so.0.6:_ZNK9SymEngine5Infty12is_canonicalERKNS_3RCPIKNS_6NumberEEE
libsymengine.so.0.6:_ZNK9SymEngine5Infty20is_negative_infinityEv
libsymengine.so.0.6:_ZNK9SymEngine5Infty20is_positive_infinityEv
libsymengine.so.0.6:_ZNK9SymEngine5Infty20is_unsigned_infinityEv
libsymengine.so.0.6:_ZNK9SymEngine5Infty3addERKNS_6NumberE
libsymengine.so.0.6:_ZNK9SymEngine5Infty3divERKNS_6NumberE
libsymengine.so.0.6:_ZNK9SymEngine5Infty3mulERKNS_6NumberE
libsymengine.so.0.6:_ZNK9SymEngine5Infty3powERKNS_6NumberE
libsymengine.so.0.6:_ZNK9SymEngine5Infty4rpowERKNS_6NumberE
libsymengine.so.0.6:_ZNK9SymEngine5Infty6__eq__ERKNS_5BasicE
libsymengine.so.0.6:_ZNK9SymEngine5Infty6acceptERNS_26EvalRealDoubleVisitorFinalE
libsymengine.so.0.6:_ZNK9SymEngine5Infty6acceptERNS_7VisitorE
libsymengine.so.0.6:_ZNK9SymEngine5Infty7compareERKNS_5BasicE
libsymengine.so.0.6:_ZNK9SymEngine5Infty8__hash__Ev
libsymengine.so.0.6:_ZNK9SymEngine5Infty8get_evalEv
libsymengine.so.0.6:_ZNK9SymEngine5Infty9conjugateEv
libsymengine.so.0.6:_ZNK9SymEngine5Union14set_complementERKNS_3RCPIKNS_3SetEEE
libsymengine.so.0.6:_ZNK9SymEngine5Union16set_intersectionERKNS_3RCPIKNS_3SetEEE
libsymengine.so.0.6:_ZNK9SymEngine5Union6__eq__ERKNS_5BasicE
libsymengine.so.0.6:_ZNK9SymEngine5Union6acceptERNS_26EvalRealDoubleVisitorFinalE
libsymengine.so.0.6:_ZNK9SymEngine5Union6acceptERNS_7VisitorE
libsymengine.so.0.6:_ZNK9SymEngine5Union6createERKSt3setINS_3RCPIKNS_3SetEEENS_15RCPBasicKeyLessESaIS5_EE
libsymengine.so.0.6:_ZNK9SymEngine5Union7compareERKNS_5BasicE
libsymengine.so.0.6:_ZNK9SymEngine5Union8__hash__Ev
libsymengine.so.0.6:_ZNK9SymEngine5Union8containsERKNS_3RCPIKNS_5BasicEEE
libsymengine.so.0.6:_ZNK9SymEngine5Union8get_argsEv
libsymengine.so.0.6:_ZNK9SymEngine5Union9set_unionERKNS_3RCPIKNS_3SetEEE
libsymengine.so.0.6:_ZNK9SymEngine6Number3divERKS0_
libsymengine.so.0.6:_ZNK9SymEngine6Number3subERKS0_
libsymengine.so.0.6:_ZNK9SymEngine6Number4rdivERKS0_
libsymengine.so.0.6:_ZNK9SymEngine6Number4rsubERKS0_
libsymengine.so.0.6:_ZNK9SymEngine6Number9conjugateEv
libsymengine.so.0.6:_ZNK9SymEngine6Symbol6__eq__ERKNS_5BasicE
libsymengine.so.0.6:_ZNK9SymEngine6Symbol6acceptERNS_26EvalRealDoubleVisitorFinalE
libsymengine.so.0.6:_ZNK9SymEngine6Symbol6acceptERNS_7VisitorE
libsymengine.so.0.6:_ZNK9SymEngine6Symbol7compareERKNS_5BasicE
libsymengine.so.0.6:_ZNK9SymEngine6Symbol8__hash__Ev
libsymengine.so.0.6:_ZNK9SymEngine6Symbol8as_dummyEv
libsymengine.so.0.6:_ZNK9SymEngine7Boolean11logical_notEv
libsymengine.so.0.6:_ZNK9SymEngine7Ceiling12is_canonicalERKNS_3RCPIKNS_5BasicEEE
libsymengine.so.0.6:_ZNK9SymEngine7Ceiling6acceptERNS_26EvalRealDoubleVisitorFinalE
libsymengine.so.0.6:_ZNK9SymEngine7Ceiling6acceptERNS_7VisitorE
libsymengine.so.0.6:_ZNK9SymEngine7Ceiling6createERKNS_3RCPIKNS_5BasicEEE
libsymengine.so.0.6:_ZNK9SymEngine7Complex12is_canonicalERKNS_11mpq_wrapperES3_
libsymengine.so.0.6:_ZNK9SymEngine7Complex14imaginary_partEv
libsymengine.so.0.6:_ZNK9SymEngine7Complex6__eq__ERKNS_5BasicE
libsymengine.so.0.6:_ZNK9SymEngine7Complex6acceptERNS_26EvalRealDoubleVisitorFinalE
libsymengine.so.0.6:_ZNK9SymEngine7Complex6acceptERNS_7VisitorE
libsymengine.so.0.6:_ZNK9SymEngine7Complex7compareERKNS_5BasicE
libsymengine.so.0.6:_ZNK9SymEngine7Complex7powcompERKNS_7IntegerE
libsymengine.so.0.6:_ZNK9SymEngine7Complex8__hash__Ev
libsymengine.so.0.6:_ZNK9SymEngine7Complex9conjugateEv
libsymengine.so.0.6:_ZNK9SymEngine7Complex9real_partEv
libsymengine.so.0.6:_ZNK9SymEngine7Integer10pow_negintERKS0_
libsymengine.so.0.6:_ZNK9SymEngine7Integer4rdivERKNS_6NumberE
libsymengine.so.0.6:_ZNK9SymEngine7Integer6__eq__ERKNS_5BasicE
libsymengine.so.0.6:_ZNK9SymEngine7Integer6acceptERNS_26EvalRealDoubleVisitorFinalE
libsymengine.so.0.6:_ZNK9SymEngine7Integer6acceptERNS_7VisitorE
libsymengine.so.0.6:_ZNK9SymEngine7Integer6as_intEv
libsymengine.so.0.6:_ZNK9SymEngine7Integer6divintERKS0_
libsymengine.so.0.6:_ZNK9SymEngine7Integer7as_uintEv
libsymengine.so.0.6:_ZNK9SymEngine7Integer7compareERKNS_5BasicE
libsymengine.so.0.6:_ZNK9SymEngine7Integer8__hash__Ev
libsymengine.so.0.6:_ZNK9SymEngine8Constant6__eq__ERKNS_5BasicE
libsymengine.so.0.6:_ZNK9SymEngine8Constant6acceptERNS_26EvalRealDoubleVisitorFinalE
libsymengine.so.0.6:_ZNK9SymEngine8Constant6acceptERNS_7VisitorE
libsymengine.so.0.6:_ZNK9SymEngine8Constant7compareERKNS_5BasicE
libsymengine.so.0.6:_ZNK9SymEngine8Constant8__hash__Ev
libsymengine.so.0.6:_ZNK9SymEngine8Contains6__eq__ERKNS_5BasicE
libsymengine.so.0.6:_ZNK9SymEngine8Contains6acceptERNS_26EvalRealDoubleVisitorFinalE
libsymengine.so.0.6:_ZNK9SymEngine8Contains6acceptERNS_7VisitorE
libsymengine.so.0.6:_ZNK9SymEngine8Contains6createERKNS_3RCPIKNS_5BasicEEERKNS1_IKNS_3SetEEE
libsymengine.so.0.6:_ZNK9SymEngine8Contains7compareERKNS_5BasicE
libsymengine.so.0.6:_ZNK9SymEngine8Contains7get_setEv
libsymengine.so.0.6:_ZNK9SymEngine8Contains8__hash__Ev
libsymengine.so.0.6:_ZNK9SymEngine8Contains8get_argsEv
libsymengine.so.0.6:_ZNK9SymEngine8Contains8get_exprEv
libsymengine.so.0.6:_ZNK9SymEngine8EmptySet14set_complementERKNS_3RCPIKNS_3SetEEE
libsymengine.so.0.6:_ZNK9SymEngine8EmptySet16set_intersectionERKNS_3RCPIKNS_3SetEEE
libsymengine.so.0.6:_ZNK9SymEngine8EmptySet6__eq__ERKNS_5BasicE
libsymengine.so.0.6:_ZNK9SymEngine8EmptySet6acceptERNS_26EvalRealDoubleVisitorFinalE
libsymengine.so.0.6:_ZNK9SymEngine8EmptySet6acceptERNS_7VisitorE
libsymengine.so.0.6:_ZNK9SymEngine8EmptySet7compareERKNS_5BasicE
libsymengine.so.0.6:_ZNK9SymEngine8EmptySet8__hash__Ev
libsymengine.so.0.6:_ZNK9SymEngine8EmptySet9set_unionERKNS_3RCPIKNS_3SetEEE
libsymengine.so.0.6:_ZNK9SymEngine8Equality11logical_notEv
libsymengine.so.0.6:_ZNK9SymEngine8Equality6acceptERNS_26EvalRealDoubleVisitorFinalE
libsymengine.so.0.6:_ZNK9SymEngine8Equality6acceptERNS_7VisitorE
libsymengine.so.0.6:_ZNK9SymEngine8Equality6createERKNS_3RCPIKNS_5BasicEEES6_
libsymengine.so.0.6:_ZNK9SymEngine8ImageSet14set_complementERKNS_3RCPIKNS_3SetEEE
libsymengine.so.0.6:_ZNK9SymEngine8ImageSet16set_intersectionERKNS_3RCPIKNS_3SetEEE
libsymengine.so.0.6:_ZNK9SymEngine8ImageSet6__eq__ERKNS_5BasicE
libsymengine.so.0.6:_ZNK9SymEngine8ImageSet6acceptERNS_26EvalRealDoubleVisitorFinalE
libsymengine.so.0.6:_ZNK9SymEngine8ImageSet6acceptERNS_7VisitorE
libsymengine.so.0.6:_ZNK9SymEngine8ImageSet6createERKNS_3RCPIKNS_5BasicEEES6_RKNS1_IKNS_3SetEEE
libsymengine.so.0.6:_ZNK9SymEngine8ImageSet7compareERKNS_5BasicE
libsymengine.so.0.6:_ZNK9SymEngine8ImageSet8__hash__Ev
libsymengine.so.0.6:_ZNK9SymEngine8ImageSet8containsERKNS_3RCPIKNS_5BasicEEE
libsymengine.so.0.6:_ZNK9SymEngine8ImageSet9set_unionERKNS_3RCPIKNS_3SetEEE
libsymengine.so.0.6:_ZNK9SymEngine8Interval14set_complementERKNS_3RCPIKNS_3SetEEE
libsymengine.so.0.6:_ZNK9SymEngine8Interval16set_intersectionERKNS_3RCPIKNS_3SetEEE
libsymengine.so.0.6:_ZNK9SymEngine8Interval4openEv
libsymengine.so.0.6:_ZNK9SymEngine8Interval5LopenEv
libsymengine.so.0.6:_ZNK9SymEngine8Interval5RopenEv
libsymengine.so.0.6:_ZNK9SymEngine8Interval5closeEv
libsymengine.so.0.6:_ZNK9SymEngine8Interval6__eq__ERKNS_5BasicE
libsymengine.so.0.6:_ZNK9SymEngine8Interval6acceptERNS_26EvalRealDoubleVisitorFinalE
libsymengine.so.0.6:_ZNK9SymEngine8Interval6acceptERNS_7VisitorE
libsymengine.so.0.6:_ZNK9SymEngine8Interval7compareERKNS_5BasicE
libsymengine.so.0.6:_ZNK9SymEngine8Interval8__hash__Ev
libsymengine.so.0.6:_ZNK9SymEngine8Interval8containsERKNS_3RCPIKNS_5BasicEEE
libsymengine.so.0.6:_ZNK9SymEngine8Interval8get_argsEv
libsymengine.so.0.6:_ZNK9SymEngine8Interval9set_unionERKNS_3RCPIKNS_3SetEEE
libsymengine.so.0.6:_ZNK9SymEngine8LambertW12is_canonicalERKNS_3RCPIKNS_5BasicEEE
libsymengine.so.0.6:_ZNK9SymEngine8LambertW6acceptERNS_26EvalRealDoubleVisitorFinalE
libsymengine.so.0.6:_ZNK9SymEngine8LambertW6acceptERNS_7VisitorE
libsymengine.so.0.6:_ZNK9SymEngine8LambertW6createERKNS_3RCPIKNS_5BasicEEE
libsymengine.so.0.6:_ZNK9SymEngine8LessThan11logical_notEv
libsymengine.so.0.6:_ZNK9SymEngine8LessThan6acceptERNS_26EvalRealDoubleVisitorFinalE
libsymengine.so.0.6:_ZNK9SymEngine8LessThan6acceptERNS_7VisitorE
libsymengine.so.0.6:_ZNK9SymEngine8LessThan6createERKNS_3RCPIKNS_5BasicEEES6_
libsymengine.so.0.6:_ZNK9SymEngine8LogGamma12is_canonicalERKNS_3RCPIKNS_5BasicEEE
libsymengine.so.0.6:_ZNK9SymEngine8LogGamma16rewrite_as_gammaEv
libsymengine.so.0.6:_ZNK9SymEngine8LogGamma6acceptERNS_26EvalRealDoubleVisitorFinalE
libsymengine.so.0.6:_ZNK9SymEngine8LogGamma6acceptERNS_7VisitorE
libsymengine.so.0.6:_ZNK9SymEngine8LogGamma6createERKNS_3RCPIKNS_5BasicEEE
libsymengine.so.0.6:_ZNK9SymEngine8MIntPoly11as_symbolicEv
libsymengine.so.0.6:_ZNK9SymEngine8MIntPoly4evalERSt3mapINS_3RCPIKNS_5BasicEEENS_11mpz_wrapperENS_15RCPBasicKeyLessESaISt4pairIKS5_S6_EEE
libsymengine.so.0.6:_ZNK9SymEngine8MIntPoly6acceptERNS_26EvalRealDoubleVisitorFinalE
libsymengine.so.0.6:_ZNK9SymEngine8MIntPoly6acceptERNS_7VisitorE
libsymengine.so.0.6:_ZNK9SymEngine8MIntPoly8__hash__Ev
libsymengine.so.0.6:_ZNK9SymEngine8Rational12is_canonicalERKNS_11mpq_wrapperE
libsymengine.so.0.6:_ZNK9SymEngine8Rational16is_perfect_powerEb
libsymengine.so.0.6:_ZNK9SymEngine8Rational6__eq__ERKNS_5BasicE
libsymengine.so.0.6:_ZNK9SymEngine8Rational6acceptERNS_26EvalRealDoubleVisitorFinalE
libsymengine.so.0.6:_ZNK9SymEngine8Rational6acceptERNS_7VisitorE
libsymengine.so.0.6:_ZNK9SymEngine8Rational6powratERKS0_
libsymengine.so.0.6:_ZNK9SymEngine8Rational7compareERKNS_5BasicE
libsymengine.so.0.6:_ZNK9SymEngine8Rational7rpowratERKNS_7IntegerE
libsymengine.so.0.6:_ZNK9SymEngine8Rational8__hash__Ev
libsymengine.so.0.6:_ZNK9SymEngine8Rational8nth_rootERKNS_3PtrINS_3RCPIKNS_6NumberEEEEEm
libsymengine.so.0.6:_ZNK9SymEngine8RealMPFR6__eq__ERKNS_5BasicE
libsymengine.so.0.6:_ZNK9SymEngine8RealMPFR6acceptERNS_26EvalRealDoubleVisitorFinalE
libsymengine.so.0.6:_ZNK9SymEngine8RealMPFR6acceptERNS_7VisitorE
libsymengine.so.0.6:_ZNK9SymEngine8RealMPFR7addrealERKNS_10RealDoubleE
libsymengine.so.0.6:_ZNK9SymEngine8RealMPFR7addrealERKNS_13ComplexDoubleE
libsymengine.so.0.6:_ZNK9SymEngine8RealMPFR7addrealERKNS_7ComplexE
libsymengine.so.0.6:_ZNK9SymEngine8RealMPFR7addrealERKNS_7IntegerE
libsymengine.so.0.6:_ZNK9SymEngine8RealMPFR7addrealERKNS_8RationalE
libsymengine.so.0.6:_ZNK9SymEngine8RealMPFR7addrealERKS0_
libsymengine.so.0.6:_ZNK9SymEngine8RealMPFR7compareERKNS_5BasicE
libsymengine.so.0.6:_ZNK9SymEngine8RealMPFR7divrealERKNS_10RealDoubleE
libsymengine.so.0.6:_ZNK9SymEngine8RealMPFR7divrealERKNS_13ComplexDoubleE
libsymengine.so.0.6:_ZNK9SymEngine8RealMPFR7divrealERKNS_7ComplexE
libsymengine.so.0.6:_ZNK9SymEngine8RealMPFR7divrealERKNS_7IntegerE
libsymengine.so.0.6:_ZNK9SymEngine8RealMPFR7divrealERKNS_8RationalE
libsymengine.so.0.6:_ZNK9SymEngine8RealMPFR7divrealERKS0_
libsymengine.so.0.6:_ZNK9SymEngine8RealMPFR7mulrealERKNS_10RealDoubleE
libsymengine.so.0.6:_ZNK9SymEngine8RealMPFR7mulrealERKNS_13ComplexDoubleE
libsymengine.so.0.6:_ZNK9SymEngine8RealMPFR7mulrealERKNS_7ComplexE
libsymengine.so.0.6:_ZNK9SymEngine8RealMPFR7mulrealERKNS_7IntegerE
libsymengine.so.0.6:_ZNK9SymEngine8RealMPFR7mulrealERKNS_8RationalE
libsymengine.so.0.6:_ZNK9SymEngine8RealMPFR7mulrealERKS0_
libsymengine.so.0.6:_ZNK9SymEngine8RealMPFR7powrealERKNS_10RealDoubleE
libsymengine.so.0.6:_ZNK9SymEngine8RealMPFR7powrealERKNS_13ComplexDoubleE
libsymengine.so.0.6:_ZNK9SymEngine8RealMPFR7powrealERKNS_7ComplexE
libsymengine.so.0.6:_ZNK9SymEngine8RealMPFR7powrealERKNS_7IntegerE
libsymengine.so.0.6:_ZNK9SymEngine8RealMPFR7powrealERKNS_8RationalE
libsymengine.so.0.6:_ZNK9SymEngine8RealMPFR7powrealERKS0_
libsymengine.so.0.6:_ZNK9SymEngine8RealMPFR7subrealERKNS_10RealDoubleE
libsymengine.so.0.6:_ZNK9SymEngine8RealMPFR7subrealERKNS_13ComplexDoubleE
libsymengine.so.0.6:_ZNK9SymEngine8RealMPFR7subrealERKNS_7ComplexE
libsymengine.so.0.6:_ZNK9SymEngine8RealMPFR7subrealERKNS_7IntegerE
libsymengine.so.0.6:_ZNK9SymEngine8RealMPFR7subrealERKNS_8RationalE
libsymengine.so.0.6:_ZNK9SymEngine8RealMPFR7subrealERKS0_
libsymengine.so.0.6:_ZNK9SymEngine8RealMPFR8__hash__Ev
libsymengine.so.0.6:_ZNK9SymEngine8RealMPFR8get_evalEv
libsymengine.so.0.6:_ZNK9SymEngine8RealMPFR8rdivrealERKNS_10RealDoubleE
libsymengine.so.0.6:_ZNK9SymEngine8RealMPFR8rdivrealERKNS_13ComplexDoubleE
libsymengine.so.0.6:_ZNK9SymEngine8RealMPFR8rdivrealERKNS_7ComplexE
libsymengine.so.0.6:_ZNK9SymEngine8RealMPFR8rdivrealERKNS_7IntegerE
libsymengine.so.0.6:_ZNK9SymEngine8RealMPFR8rdivrealERKNS_8RationalE
libsymengine.so.0.6:_ZNK9SymEngine8RealMPFR8rpowrealERKNS_10RealDoubleE
libsymengine.so.0.6:_ZNK9SymEngine8RealMPFR8rpowrealERKNS_13ComplexDoubleE
libsymengine.so.0.6:_ZNK9SymEngine8RealMPFR8rpowrealERKNS_7ComplexE
libsymengine.so.0.6:_ZNK9SymEngine8RealMPFR8rpowrealERKNS_7IntegerE
libsymengine.so.0.6:_ZNK9SymEngine8RealMPFR8rpowrealERKNS_8RationalE
libsymengine.so.0.6:_ZNK9SymEngine8RealMPFR8rsubrealERKNS_10RealDoubleE
libsymengine.so.0.6:_ZNK9SymEngine8RealMPFR8rsubrealERKNS_13ComplexDoubleE
libsymengine.so.0.6:_ZNK9SymEngine8RealMPFR8rsubrealERKNS_7ComplexE
libsymengine.so.0.6:_ZNK9SymEngine8RealMPFR8rsubrealERKNS_7IntegerE
libsymengine.so.0.6:_ZNK9SymEngine8RealMPFR8rsubrealERKNS_8RationalE
libsymengine.so.0.6:_ZNK9SymEngine8Truncate12is_canonicalERKNS_3RCPIKNS_5BasicEEE
libsymengine.so.0.6:_ZNK9SymEngine8Truncate6acceptERNS_26EvalRealDoubleVisitorFinalE
libsymengine.so.0.6:_ZNK9SymEngine8Truncate6acceptERNS_7VisitorE
libsymengine.so.0.6:_ZNK9SymEngine8Truncate6createERKNS_3RCPIKNS_5BasicEEE
libsymengine.so.0.6:_ZNK9SymEngine8UIntPoly6acceptERNS_26EvalRealDoubleVisitorFinalE
libsymengine.so.0.6:_ZNK9SymEngine8UIntPoly6acceptERNS_7VisitorE
libsymengine.so.0.6:_ZNK9SymEngine8UIntPoly8__hash__Ev
libsymengine.so.0.6:_ZNK9SymEngine8URatPoly6acceptERNS_26EvalRealDoubleVisitorFinalE
libsymengine.so.0.6:_ZNK9SymEngine8URatPoly6acceptERNS_7VisitorE
libsymengine.so.0.6:_ZNK9SymEngine8URatPoly8__hash__Ev
libsymengine.so.0.6:_ZNK9SymEngine9CSRMatrix10add_matrixERKNS_10MatrixBaseERS1_
libsymengine.so.0.6:_ZNK9SymEngine9CSRMatrix10add_scalarERKNS_3RCPIKNS_5BasicEEERNS_10MatrixBaseE
libsymengine.so.0.6:_ZNK9SymEngine9CSRMatrix10as_vectorsEv
libsymengine.so.0.6:_ZNK9SymEngine9CSRMatrix10mul_matrixERKNS_10MatrixBaseERS1_
libsymengine.so.0.6:_ZNK9SymEngine9CSRMatrix10mul_scalarERKNS_3RCPIKNS_5BasicEEERNS_10MatrixBaseE
libsymengine.so.0.6:_ZNK9SymEngine9CSRMatrix12is_canonicalEv
libsymengine.so.0.6:_ZNK9SymEngine9CSRMatrix2LUERNS_10MatrixBaseES2_
libsymengine.so.0.6:_ZNK9SymEngine9CSRMatrix2QRERNS_10MatrixBaseES2_
libsymengine.so.0.6:_ZNK9SymEngine9CSRMatrix2eqERKNS_10MatrixBaseE
libsymengine.so.0.6:_ZNK9SymEngine9CSRMatrix3LDLERNS_10MatrixBaseES2_
libsymengine.so.0.6:_ZNK9SymEngine9CSRMatrix3detEv
libsymengine.so.0.6:_ZNK9SymEngine9CSRMatrix3getEjj
libsymengine.so.0.6:_ZNK9SymEngine9CSRMatrix3invERNS_10MatrixBaseE
libsymengine.so.0.6:_ZNK9SymEngine9CSRMatrix4FFLUERNS_10MatrixBaseE
libsymengine.so.0.6:_ZNK9SymEngine9CSRMatrix4rankEv
libsymengine.so.0.6:_ZNK9SymEngine9CSRMatrix5FFLDUERNS_10MatrixBaseES2_S2_
libsymengine.so.0.6:_ZNK9SymEngine9CSRMatrix8LU_solveERKNS_10MatrixBaseERS1_
libsymengine.so.0.6:_ZNK9SymEngine9CSRMatrix8choleskyERNS_10MatrixBaseE
libsymengine.so.0.6:_ZNK9SymEngine9CSRMatrix9submatrixERNS_10MatrixBaseEjjjjjj
libsymengine.so.0.6:_ZNK9SymEngine9CSRMatrix9transposeERNS_10MatrixBaseE
libsymengine.so.0.6:_ZNK9SymEngine9CSRMatrix9transposeEv
libsymengine.so.0.6:_ZNK9SymEngine9Conjugate12is_canonicalERKNS_3RCPIKNS_5BasicEEE
libsymengine.so.0.6:_ZNK9SymEngine9Conjugate6acceptERNS_26EvalRealDoubleVisitorFinalE
libsymengine.so.0.6:_ZNK9SymEngine9Conjugate6acceptERNS_7VisitorE
libsymengine.so.0.6:_ZNK9SymEngine9Conjugate6createERKNS_3RCPIKNS_5BasicEEE
libsymengine.so.0.6:_ZNK9SymEngine9FiniteSet14set_complementERKNS_3RCPIKNS_3SetEEE
libsymengine.so.0.6:_ZNK9SymEngine9FiniteSet16set_intersectionERKNS_3RCPIKNS_3SetEEE
libsymengine.so.0.6:_ZNK9SymEngine9FiniteSet6__eq__ERKNS_5BasicE
libsymengine.so.0.6:_ZNK9SymEngine9FiniteSet6acceptERNS_26EvalRealDoubleVisitorFinalE
libsymengine.so.0.6:_ZNK9SymEngine9FiniteSet6acceptERNS_7VisitorE
libsymengine.so.0.6:_ZNK9SymEngine9FiniteSet6createERKSt3setINS_3RCPIKNS_5BasicEEENS_15RCPBasicKeyLessESaIS5_EE
libsymengine.so.0.6:_ZNK9SymEngine9FiniteSet7compareERKNS_5BasicE
libsymengine.so.0.6:_ZNK9SymEngine9FiniteSet8__hash__Ev
libsymengine.so.0.6:_ZNK9SymEngine9FiniteSet8containsERKNS_3RCPIKNS_5BasicEEE
libsymengine.so.0.6:_ZNK9SymEngine9FiniteSet9set_unionERKNS_3RCPIKNS_3SetEEE
libsymengine.so.0.6:_ZNK9SymEngine9MExprPoly11as_symbolicEv
libsymengine.so.0.6:_ZNK9SymEngine9MExprPoly4evalERSt3mapINS_3RCPIKNS_5BasicEEENS_10ExpressionENS_15RCPBasicKeyLessESaISt4pairIKS5_S6_EEE
libsymengine.so.0.6:_ZNK9SymEngine9MExprPoly6acceptERNS_26EvalRealDoubleVisitorFinalE
libsymengine.so.0.6:_ZNK9SymEngine9MExprPoly6acceptERNS_7VisitorE
libsymengine.so.0.6:_ZNK9SymEngine9MExprPoly8__hash__Ev
libsymengine.so.0.6:_ZNK9SymEngine9Piecewise6__eq__ERKNS_5BasicE
libsymengine.so.0.6:_ZNK9SymEngine9Piecewise6acceptERNS_26EvalRealDoubleVisitorFinalE
libsymengine.so.0.6:_ZNK9SymEngine9Piecewise6acceptERNS_7VisitorE
libsymengine.so.0.6:_ZNK9SymEngine9Piecewise7compareERKNS_5BasicE
libsymengine.so.0.6:_ZNK9SymEngine9Piecewise7get_vecEv
libsymengine.so.0.6:_ZNK9SymEngine9Piecewise8__hash__Ev
libsymengine.so.0.6:_ZNK9SymEngine9Piecewise8get_argsEv
libsymengine.so.0.6:_ZNK9SymEngine9PolyGamma15rewrite_as_zetaEv
libsymengine.so.0.6:_ZNK9SymEngine9PolyGamma6acceptERNS_26EvalRealDoubleVisitorFinalE
libsymengine.so.0.6:_ZNK9SymEngine9PolyGamma6acceptERNS_7VisitorE
libsymengine.so.0.6:_ZNK9SymEngine9PolyGamma6createERKNS_3RCPIKNS_5BasicEEES6_
libsymengine.so.0.6:_ZNK9SymEngine9UExprPoly10is_integerEv
libsymengine.so.0.6:_ZNK9SymEngine9UExprPoly12is_minus_oneEv
libsymengine.so.0.6:_ZNK9SymEngine9UExprPoly4evalERKNS_10ExpressionE
libsymengine.so.0.6:_ZNK9SymEngine9UExprPoly6acceptERNS_26EvalRealDoubleVisitorFinalE
libsymengine.so.0.6:_ZNK9SymEngine9UExprPoly6acceptERNS_7VisitorE
libsymengine.so.0.6:_ZNK9SymEngine9UExprPoly6is_mulEv
libsymengine.so.0.6:_ZNK9SymEngine9UExprPoly6is_oneEv
libsymengine.so.0.6:_ZNK9SymEngine9UExprPoly6is_powEv
libsymengine.so.0.6:_ZNK9SymEngine9UExprPoly7is_zeroEv
libsymengine.so.0.6:_ZNK9SymEngine9UExprPoly8__hash__Ev
libsymengine.so.0.6:_ZNK9SymEngine9UExprPoly8max_coefEv
libsymengine.so.0.6:_ZNK9SymEngine9UExprPoly9is_symbolEv
libsymengine.so.0.6:_ZNSt17_Function_handlerIFN9SymEngine3RCPIKNS0_5BasicEEERKS4_ENS0_16ExpressionParser20single_arg_functionsMUlS6_E_EE10_M_managerERSt9_Any_dataRKSB_St18_Manager_operation
libsymengine.so.0.6:_ZNSt17_Function_handlerIFN9SymEngine3RCPIKNS0_5BasicEEERKS4_ENS0_16ExpressionParser20single_arg_functionsMUlS6_E_EE9_M_invokeERKSt9_Any_dataS6_
libsymengine.so.0.6:_ZNSt17_Function_handlerIFN9SymEngine3RCPIKNS0_5BasicEEERKS4_EPS7_E10_M_managerERSt9_Any_dataRKSA_St18_Manager_operation
libsymengine.so.0.6:_ZNSt17_Function_handlerIFN9SymEngine3RCPIKNS0_5BasicEEERKS4_EPS7_E9_M_invokeERKSt9_Any_dataS6_
libsymengine.so.0.6:_ZNSt17_Function_handlerIFN9SymEngine3RCPIKNS0_5BasicEEERKS4_S6_EPS7_E10_M_managerERSt9_Any_dataRKSA_St18_Manager_operation
libsymengine.so.0.6:_ZNSt17_Function_handlerIFN9SymEngine3RCPIKNS0_5BasicEEERKS4_S6_EPS7_E9_M_invokeERKSt9_Any_dataS6_S6_
libsymengine.so.0.6:_ZNSt17_Function_handlerIFN9SymEngine3RCPIKNS0_5BasicEEERSt6vectorIS4_SaIS4_EEEPFS4_RKS7_EE10_M_managerERSt9_Any_dataRKSF_St18_Manager_operation
libsymengine.so.0.6:_ZNSt17_Function_handlerIFN9SymEngine3RCPIKNS0_5BasicEEERSt6vectorIS4_SaIS4_EEEPFS4_RKS7_EE9_M_invokeERKSt9_Any_dataS8_
libsymengine.so.0.6:_ZNSt17_Function_handlerIFN9SymEngine3RCPIKNS0_7BooleanEEERKNS1_IKNS0_5BasicEEEEPSA_E10_M_managerERSt9_Any_dataRKSD_St18_Manager_operation
libsymengine.so.0.6:_ZNSt17_Function_handlerIFN9SymEngine3RCPIKNS0_7BooleanEEERKNS1_IKNS0_5BasicEEEEPSA_E9_M_invokeERKSt9_Any_dataS9_
libsymengine.so.0.6:_ZNSt17_Function_handlerIFN9SymEngine3RCPIKNS0_7BooleanEEERKNS1_IKNS0_5BasicEEES9_EPSA_E10_M_managerERSt9_Any_dataRKSD_St18_Manager_operation
libsymengine.so.0.6:_ZNSt17_Function_handlerIFN9SymEngine3RCPIKNS0_7BooleanEEERKNS1_IKNS0_5BasicEEES9_EPSA_E9_M_invokeERKSt9_Any_dataS9_S9_
libsymengine.so.0.6:_ZNSt17_Function_handlerIFN9SymEngine3RCPIKNS0_7BooleanEEERKS4_EPS7_E10_M_managerERSt9_Any_dataRKSA_St18_Manager_operation
libsymengine.so.0.6:_ZNSt17_Function_handlerIFN9SymEngine3RCPIKNS0_7BooleanEEERKS4_EPS7_E9_M_invokeERKSt9_Any_dataS6_
libsymengine.so.0.6:_ZNSt17_Function_handlerIFN9SymEngine3RCPIKNS0_7BooleanEEERSt3setIS4_NS0_15RCPBasicKeyLessESaIS4_EEEPFS4_RKS8_EE10_M_managerERSt9_Any_dataRKSG_St18_Manager_operation
libsymengine.so.0.6:_ZNSt17_Function_handlerIFN9SymEngine3RCPIKNS0_7BooleanEEERSt3setIS4_NS0_15RCPBasicKeyLessESaIS4_EEEPFS4_RKS8_EE9_M_invokeERKSt9_Any_dataS9_
libsymengine.so.0.6:_ZNSt17_Function_handlerIFN9SymEngine3RCPIKNS0_7BooleanEEERSt6vectorIS4_SaIS4_EEEPFS4_RKS7_EE10_M_managerERSt9_Any_dataRKSF_St18_Manager_operation
libsymengine.so.0.6:_ZNSt17_Function_handlerIFN9SymEngine3RCPIKNS0_7BooleanEEERSt6vectorIS4_SaIS4_EEEPFS4_RKS7_EE9_M_invokeERKSt9_Any_dataS8_
libsymengine.so.0.6:_ZNSt17_Function_handlerIFdPKdEZN9SymEngine19LambdaDoubleVisitorIdE6bvisitERKNS3_10RealDoubleEEUlS1_E_E10_M_managerERSt9_Any_dataRKSB_St18_Manager_operation
libsymengine.so.0.6:_ZNSt17_Function_handlerIFdPKdEZN9SymEngine19LambdaDoubleVisitorIdE6bvisitERKNS3_10RealDoubleEEUlS1_E_E9_M_invokeERKSt9_Any_dataOS1_
libsymengine.so.0.6:_ZNSt17_Function_handlerIFdPKdEZN9SymEngine19LambdaDoubleVisitorIdE6bvisitERKNS3_3AbsEEUlS1_E_E10_M_managerERSt9_Any_dataRKSB_St18_Manager_operation
libsymengine.so.0.6:_ZNSt17_Function_handlerIFdPKdEZN9SymEngine19LambdaDoubleVisitorIdE6bvisitERKNS3_3AbsEEUlS1_E_E9_M_invokeERKSt9_Any_dataOS1_
libsymengine.so.0.6:_ZNSt17_Function_handlerIFdPKdEZN9SymEngine19LambdaDoubleVisitorIdE6bvisitERKNS3_3AddEEUlS1_E_E10_M_managerERSt9_Any_dataRKSB_St18_Manager_operation
libsymengine.so.0.6:_ZNSt17_Function_handlerIFdPKdEZN9SymEngine19LambdaDoubleVisitorIdE6bvisitERKNS3_3AddEEUlS1_E_E9_M_invokeERKSt9_Any_dataOS1_
libsymengine.so.0.6:_ZNSt17_Function_handlerIFdPKdEZN9SymEngine19LambdaDoubleVisitorIdE6bvisitERKNS3_3CosEEUlS1_E_E10_M_managerERSt9_Any_dataRKSB_St18_Manager_operation
libsymengine.so.0.6:_ZNSt17_Function_handlerIFdPKdEZN9SymEngine19LambdaDoubleVisitorIdE6bvisitERKNS3_3CosEEUlS1_E_E9_M_invokeERKSt9_Any_dataOS1_
libsymengine.so.0.6:_ZNSt17_Function_handlerIFdPKdEZN9SymEngine19LambdaDoubleVisitorIdE6bvisitERKNS3_3CotEEUlS1_E_E10_M_managerERSt9_Any_dataRKSB_St18_Manager_operation
libsymengine.so.0.6:_ZNSt17_Function_handlerIFdPKdEZN9SymEngine19LambdaDoubleVisitorIdE6bvisitERKNS3_3CotEEUlS1_E_E9_M_invokeERKSt9_Any_dataOS1_
libsymengine.so.0.6:_ZNSt17_Function_handlerIFdPKdEZN9SymEngine19LambdaDoubleVisitorIdE6bvisitERKNS3_3CscEEUlS1_E_E10_M_managerERSt9_Any_dataRKSB_St18_Manager_operation
libsymengine.so.0.6:_ZNSt17_Function_handlerIFdPKdEZN9SymEngine19LambdaDoubleVisitorIdE6bvisitERKNS3_3CscEEUlS1_E_E9_M_invokeERKSt9_Any_dataOS1_
libsymengine.so.0.6:_ZNSt17_Function_handlerIFdPKdEZN9SymEngine19LambdaDoubleVisitorIdE6bvisitERKNS3_3LogEEUlS1_E_E10_M_managerERSt9_Any_dataRKSB_St18_Manager_operation
libsymengine.so.0.6:_ZNSt17_Function_handlerIFdPKdEZN9SymEngine19LambdaDoubleVisitorIdE6bvisitERKNS3_3LogEEUlS1_E_E9_M_invokeERKSt9_Any_dataOS1_
libsymengine.so.0.6:_ZNSt17_Function_handlerIFdPKdEZN9SymEngine19LambdaDoubleVisitorIdE6bvisitERKNS3_3MulEEUlS1_E_E10_M_managerERSt9_Any_dataRKSB_St18_Manager_operation
libsymengine.so.0.6:_ZNSt17_Function_handlerIFdPKdEZN9SymEngine19LambdaDoubleVisitorIdE6bvisitERKNS3_3MulEEUlS1_E_E9_M_invokeERKSt9_Any_dataOS1_
libsymengine.so.0.6:_ZNSt17_Function_handlerIFdPKdEZN9SymEngine19LambdaDoubleVisitorIdE6bvisitERKNS3_3PowEEUlS1_E0_E10_M_managerERSt9_Any_dataRKSB_St18_Manager_operation
libsymengine.so.0.6:_ZNSt17_Function_handlerIFdPKdEZN9SymEngine19LambdaDoubleVisitorIdE6bvisitERKNS3_3PowEEUlS1_E0_E9_M_invokeERKSt9_Any_dataOS1_
libsymengine.so.0.6:_ZNSt17_Function_handlerIFdPKdEZN9SymEngine19LambdaDoubleVisitorIdE6bvisitERKNS3_3PowEEUlS1_E_E10_M_managerERSt9_Any_dataRKSB_St18_Manager_operation
libsymengine.so.0.6:_ZNSt17_Function_handlerIFdPKdEZN9SymEngine19LambdaDoubleVisitorIdE6bvisitERKNS3_3PowEEUlS1_E_E9_M_invokeERKSt9_Any_dataOS1_
libsymengine.so.0.6:_ZNSt17_Function_handlerIFdPKdEZN9SymEngine19LambdaDoubleVisitorIdE6bvisitERKNS3_3SecEEUlS1_E_E10_M_managerERSt9_Any_dataRKSB_St18_Manager_operation
libsymengine.so.0.6:_ZNSt17_Function_handlerIFdPKdEZN9SymEngine19LambdaDoubleVisitorIdE6bvisitERKNS3_3SecEEUlS1_E_E9_M_invokeERKSt9_Any_dataOS1_
libsymengine.so.0.6:_ZNSt17_Function_handlerIFdPKdEZN9SymEngine19LambdaDoubleVisitorIdE6bvisitERKNS3_3SinEEUlS1_E_E10_M_managerERSt9_Any_dataRKSB_St18_Manager_operation
libsymengine.so.0.6:_ZNSt17_Function_handlerIFdPKdEZN9SymEngine19LambdaDoubleVisitorIdE6bvisitERKNS3_3SinEEUlS1_E_E9_M_invokeERKSt9_Any_dataOS1_
libsymengine.so.0.6:_ZNSt17_Function_handlerIFdPKdEZN9SymEngine19LambdaDoubleVisitorIdE6bvisitERKNS3_3TanEEUlS1_E_E10_M_managerERSt9_Any_dataRKSB_St18_Manager_operation
libsymengine.so.0.6:_ZNSt17_Function_handlerIFdPKdEZN9SymEngine19LambdaDoubleVisitorIdE6bvisitERKNS3_3TanEEUlS1_E_E9_M_invokeERKSt9_Any_dataOS1_
libsymengine.so.0.6:_ZNSt17_Function_handlerIFdPKdEZN9SymEngine19LambdaDoubleVisitorIdE6bvisitERKNS3_4ACosEEUlS1_E_E10_M_managerERSt9_Any_dataRKSB_St18_Manager_operation
libsymengine.so.0.6:_ZNSt17_Function_handlerIFdPKdEZN9SymEngine19LambdaDoubleVisitorIdE6bvisitERKNS3_4ACosEEUlS1_E_E9_M_invokeERKSt9_Any_dataOS1_
libsymengine.so.0.6:_ZNSt17_Function_handlerIFdPKdEZN9SymEngine19LambdaDoubleVisitorIdE6bvisitERKNS3_4ACotEEUlS1_E_E10_M_managerERSt9_Any_dataRKSB_St18_Manager_operation
libsymengine.so.0.6:_ZNSt17_Function_handlerIFdPKdEZN9SymEngine19LambdaDoubleVisitorIdE6bvisitERKNS3_4ACotEEUlS1_E_E9_M_invokeERKSt9_Any_dataOS1_
libsymengine.so.0.6:_ZNSt17_Function_handlerIFdPKdEZN9SymEngine19LambdaDoubleVisitorIdE6bvisitERKNS3_4ACscEEUlS1_E_E10_M_managerERSt9_Any_dataRKSB_St18_Manager_operation
libsymengine.so.0.6:_ZNSt17_Function_handlerIFdPKdEZN9SymEngine19LambdaDoubleVisitorIdE6bvisitERKNS3_4ACscEEUlS1_E_E9_M_invokeERKSt9_Any_dataOS1_
libsymengine.so.0.6:_ZNSt17_Function_handlerIFdPKdEZN9SymEngine19LambdaDoubleVisitorIdE6bvisitERKNS3_4ASecEEUlS1_E_E10_M_managerERSt9_Any_dataRKSB_St18_Manager_operation
libsymengine.so.0.6:_ZNSt17_Function_handlerIFdPKdEZN9SymEngine19LambdaDoubleVisitorIdE6bvisitERKNS3_4ASecEEUlS1_E_E9_M_invokeERKSt9_Any_dataOS1_
libsymengine.so.0.6:_ZNSt17_Function_handlerIFdPKdEZN9SymEngine19LambdaDoubleVisitorIdE6bvisitERKNS3_4ASinEEUlS1_E_E10_M_managerERSt9_Any_dataRKSB_St18_Manager_operation
libsymengine.so.0.6:_ZNSt17_Function_handlerIFdPKdEZN9SymEngine19LambdaDoubleVisitorIdE6bvisitERKNS3_4ASinEEUlS1_E_E9_M_invokeERKSt9_Any_dataOS1_
libsymengine.so.0.6:_ZNSt17_Function_handlerIFdPKdEZN9SymEngine19LambdaDoubleVisitorIdE6bvisitERKNS3_4ATanEEUlS1_E_E10_M_managerERSt9_Any_dataRKSB_St18_Manager_operation
libsymengine.so.0.6:_ZNSt17_Function_handlerIFdPKdEZN9SymEngine19LambdaDoubleVisitorIdE6bvisitERKNS3_4ATanEEUlS1_E_E9_M_invokeERKSt9_Any_dataOS1_
libsymengine.so.0.6:_ZNSt17_Function_handlerIFdPKdEZN9SymEngine19LambdaDoubleVisitorIdE6bvisitERKNS3_4CoshEEUlS1_E_E10_M_managerERSt9_Any_dataRKSB_St18_Manager_operation
libsymengine.so.0.6:_ZNSt17_Function_handlerIFdPKdEZN9SymEngine19LambdaDoubleVisitorIdE6bvisitERKNS3_4CoshEEUlS1_E_E9_M_invokeERKSt9_Any_dataOS1_
libsymengine.so.0.6:_ZNSt17_Function_handlerIFdPKdEZN9SymEngine19LambdaDoubleVisitorIdE6bvisitERKNS3_4CothEEUlS1_E_E10_M_managerERSt9_Any_dataRKSB_St18_Manager_operation
libsymengine.so.0.6:_ZNSt17_Function_handlerIFdPKdEZN9SymEngine19LambdaDoubleVisitorIdE6bvisitERKNS3_4CothEEUlS1_E_E9_M_invokeERKSt9_Any_dataOS1_
libsymengine.so.0.6:_ZNSt17_Function_handlerIFdPKdEZN9SymEngine19LambdaDoubleVisitorIdE6bvisitERKNS3_4CschEEUlS1_E_E10_M_managerERSt9_Any_dataRKSB_St18_Manager_operation
libsymengine.so.0.6:_ZNSt17_Function_handlerIFdPKdEZN9SymEngine19LambdaDoubleVisitorIdE6bvisitERKNS3_4CschEEUlS1_E_E9_M_invokeERKSt9_Any_dataOS1_
libsymengine.so.0.6:_ZNSt17_Function_handlerIFdPKdEZN9SymEngine19LambdaDoubleVisitorIdE6bvisitERKNS3_4SechEEUlS1_E_E10_M_managerERSt9_Any_dataRKSB_St18_Manager_operation
libsymengine.so.0.6:_ZNSt17_Function_handlerIFdPKdEZN9SymEngine19LambdaDoubleVisitorIdE6bvisitERKNS3_4SechEEUlS1_E_E9_M_invokeERKSt9_Any_dataOS1_
libsymengine.so.0.6:_ZNSt17_Function_handlerIFdPKdEZN9SymEngine19LambdaDoubleVisitorIdE6bvisitERKNS3_4SinhEEUlS1_E_E10_M_managerERSt9_Any_dataRKSB_St18_Manager_operation
libsymengine.so.0.6:_ZNSt17_Function_handlerIFdPKdEZN9SymEngine19LambdaDoubleVisitorIdE6bvisitERKNS3_4SinhEEUlS1_E_E9_M_invokeERKSt9_Any_dataOS1_
libsymengine.so.0.6:_ZNSt17_Function_handlerIFdPKdEZN9SymEngine19LambdaDoubleVisitorIdE6bvisitERKNS3_4TanhEEUlS1_E_E10_M_managerERSt9_Any_dataRKSB_St18_Manager_operation
libsymengine.so.0.6:_ZNSt17_Function_handlerIFdPKdEZN9SymEngine19LambdaDoubleVisitorIdE6bvisitERKNS3_4TanhEEUlS1_E_E9_M_invokeERKSt9_Any_dataOS1_
libsymengine.so.0.6:_ZNSt17_Function_handlerIFdPKdEZN9SymEngine19LambdaDoubleVisitorIdE6bvisitERKNS3_5ACoshEEUlS1_E_E10_M_managerERSt9_Any_dataRKSB_St18_Manager_operation
libsymengine.so.0.6:_ZNSt17_Function_handlerIFdPKdEZN9SymEngine19LambdaDoubleVisitorIdE6bvisitERKNS3_5ACoshEEUlS1_E_E9_M_invokeERKSt9_Any_dataOS1_
libsymengine.so.0.6:_ZNSt17_Function_handlerIFdPKdEZN9SymEngine19LambdaDoubleVisitorIdE6bvisitERKNS3_5ACothEEUlS1_E_E10_M_managerERSt9_Any_dataRKSB_St18_Manager_operation
libsymengine.so.0.6:_ZNSt17_Function_handlerIFdPKdEZN9SymEngine19LambdaDoubleVisitorIdE6bvisitERKNS3_5ACothEEUlS1_E_E9_M_invokeERKSt9_Any_dataOS1_
libsymengine.so.0.6:_ZNSt17_Function_handlerIFdPKdEZN9SymEngine19LambdaDoubleVisitorIdE6bvisitERKNS3_5ACschEEUlS1_E_E10_M_managerERSt9_Any_dataRKSB_St18_Manager_operation
libsymengine.so.0.6:_ZNSt17_Function_handlerIFdPKdEZN9SymEngine19LambdaDoubleVisitorIdE6bvisitERKNS3_5ACschEEUlS1_E_E9_M_invokeERKSt9_Any_dataOS1_
libsymengine.so.0.6:_ZNSt17_Function_handlerIFdPKdEZN9SymEngine19LambdaDoubleVisitorIdE6bvisitERKNS3_5ASechEEUlS1_E_E10_M_managerERSt9_Any_dataRKSB_St18_Manager_operation
libsymengine.so.0.6:_ZNSt17_Function_handlerIFdPKdEZN9SymEngine19LambdaDoubleVisitorIdE6bvisitERKNS3_5ASechEEUlS1_E_E9_M_invokeERKSt9_Any_dataOS1_
libsymengine.so.0.6:_ZNSt17_Function_handlerIFdPKdEZN9SymEngine19LambdaDoubleVisitorIdE6bvisitERKNS3_5ASinhEEUlS1_E_E10_M_managerERSt9_Any_dataRKSB_St18_Manager_operation
libsymengine.so.0.6:_ZNSt17_Function_handlerIFdPKdEZN9SymEngine19LambdaDoubleVisitorIdE6bvisitERKNS3_5ASinhEEUlS1_E_E9_M_invokeERKSt9_Any_dataOS1_
libsymengine.so.0.6:_ZNSt17_Function_handlerIFdPKdEZN9SymEngine19LambdaDoubleVisitorIdE6bvisitERKNS3_5ATanhEEUlS1_E_E10_M_managerERSt9_Any_dataRKSB_St18_Manager_operation
libsymengine.so.0.6:_ZNSt17_Function_handlerIFdPKdEZN9SymEngine19LambdaDoubleVisitorIdE6bvisitERKNS3_5ATanhEEUlS1_E_E9_M_invokeERKSt9_Any_dataOS1_
libsymengine.so.0.6:_ZNSt17_Function_handlerIFdPKdEZN9SymEngine19LambdaDoubleVisitorIdE6bvisitERKNS3_6SymbolEEUlS1_E0_E10_M_managerERSt9_Any_dataRKSB_St18_Manager_operation
libsymengine.so.0.6:_ZNSt17_Function_handlerIFdPKdEZN9SymEngine19LambdaDoubleVisitorIdE6bvisitERKNS3_6SymbolEEUlS1_E0_E9_M_invokeERKSt9_Any_dataOS1_
libsymengine.so.0.6:_ZNSt17_Function_handlerIFdPKdEZN9SymEngine19LambdaDoubleVisitorIdE6bvisitERKNS3_6SymbolEEUlS1_E_E10_M_managerERSt9_Any_dataRKSB_St18_Manager_operation
libsymengine.so.0.6:_ZNSt17_Function_handlerIFdPKdEZN9SymEngine19LambdaDoubleVisitorIdE6bvisitERKNS3_6SymbolEEUlS1_E_E9_M_invokeERKSt9_Any_dataOS1_
libsymengine.so.0.6:_ZNSt17_Function_handlerIFdPKdEZN9SymEngine19LambdaDoubleVisitorIdE6bvisitERKNS3_7IntegerEEUlS1_E_E10_M_managerERSt9_Any_dataRKSB_St18_Manager_operation
libsymengine.so.0.6:_ZNSt17_Function_handlerIFdPKdEZN9SymEngine19LambdaDoubleVisitorIdE6bvisitERKNS3_7IntegerEEUlS1_E_E9_M_invokeERKSt9_Any_dataOS1_
libsymengine.so.0.6:_ZNSt17_Function_handlerIFdPKdEZN9SymEngine19LambdaDoubleVisitorIdE6bvisitERKNS3_8ConstantEEUlS1_E_E10_M_managerERSt9_Any_dataRKSB_St18_Manager_operation
libsymengine.so.0.6:_ZNSt17_Function_handlerIFdPKdEZN9SymEngine19LambdaDoubleVisitorIdE6bvisitERKNS3_8ConstantEEUlS1_E_E9_M_invokeERKSt9_Any_dataOS1_
libsymengine.so.0.6:_ZNSt17_Function_handlerIFdPKdEZN9SymEngine19LambdaDoubleVisitorIdE6bvisitERKNS3_8RationalEEUlS1_E_E10_M_managerERSt9_Any_dataRKSB_St18_Manager_operation
libsymengine.so.0.6:_ZNSt17_Function_handlerIFdPKdEZN9SymEngine19LambdaDoubleVisitorIdE6bvisitERKNS3_8RationalEEUlS1_E_E9_M_invokeERKSt9_Any_dataOS1_
libsymengine.so.0.6:_ZNSt17_Function_handlerIFdPKdEZN9SymEngine19LambdaDoubleVisitorIdE6bvisitERKNS3_8RealMPFREEUlS1_E_E10_M_managerERSt9_Any_dataRKSB_St18_Manager_operation
libsymengine.so.0.6:_ZNSt17_Function_handlerIFdPKdEZN9SymEngine19LambdaDoubleVisitorIdE6bvisitERKNS3_8RealMPFREEUlS1_E_E9_M_invokeERKSt9_Any_dataOS1_
libsymengine.so.0.6:_ZNSt17_Function_handlerIFdPKdEZN9SymEngine23LambdaRealDoubleVisitor6bvisitERKNS3_10UnequalityEEUlS1_E_E10_M_managerERSt9_Any_dataRKSA_St18_Manager_operation
libsymengine.so.0.6:_ZNSt17_Function_handlerIFdPKdEZN9SymEngine23LambdaRealDoubleVisitor6bvisitERKNS3_10UnequalityEEUlS1_E_E9_M_invokeERKSt9_Any_dataOS1_
libsymengine.so.0.6:_ZNSt17_Function_handlerIFdPKdEZN9SymEngine23LambdaRealDoubleVisitor6bvisitERKNS3_11BooleanAtomEEUlS1_E_E10_M_managerERSt9_Any_dataRKSA_St18_Manager_operation
libsymengine.so.0.6:_ZNSt17_Function_handlerIFdPKdEZN9SymEngine23LambdaRealDoubleVisitor6bvisitERKNS3_11BooleanAtomEEUlS1_E_E9_M_invokeERKSt9_Any_dataOS1_
libsymengine.so.0.6:_ZNSt17_Function_handlerIFdPKdEZN9SymEngine23LambdaRealDoubleVisitor6bvisitERKNS3_14StrictLessThanEEUlS1_E_E10_M_managerERSt9_Any_dataRKSA_St18_Manager_operation
libsymengine.so.0.6:_ZNSt17_Function_handlerIFdPKdEZN9SymEngine23LambdaRealDoubleVisitor6bvisitERKNS3_14StrictLessThanEEUlS1_E_E9_M_invokeERKSt9_Any_dataOS1_
libsymengine.so.0.6:_ZNSt17_Function_handlerIFdPKdEZN9SymEngine23LambdaRealDoubleVisitor6bvisitERKNS3_2OrEEUlS1_E_E10_M_managerERSt9_Any_dataRKSA_St18_Manager_operation
libsymengine.so.0.6:_ZNSt17_Function_handlerIFdPKdEZN9SymEngine23LambdaRealDoubleVisitor6bvisitERKNS3_2OrEEUlS1_E_E9_M_invokeERKSt9_Any_dataOS1_
libsymengine.so.0.6:_ZNSt17_Function_handlerIFdPKdEZN9SymEngine23LambdaRealDoubleVisitor6bvisitERKNS3_3AndEEUlS1_E_E10_M_managerERSt9_Any_dataRKSA_St18_Manager_operation
libsymengine.so.0.6:_ZNSt17_Function_handlerIFdPKdEZN9SymEngine23LambdaRealDoubleVisitor6bvisitERKNS3_3AndEEUlS1_E_E9_M_invokeERKSt9_Any_dataOS1_
libsymengine.so.0.6:_ZNSt17_Function_handlerIFdPKdEZN9SymEngine23LambdaRealDoubleVisitor6bvisitERKNS3_3ErfEEUlS1_E_E10_M_managerERSt9_Any_dataRKSA_St18_Manager_operation
libsymengine.so.0.6:_ZNSt17_Function_handlerIFdPKdEZN9SymEngine23LambdaRealDoubleVisitor6bvisitERKNS3_3ErfEEUlS1_E_E9_M_invokeERKSt9_Any_dataOS1_
libsymengine.so.0.6:_ZNSt17_Function_handlerIFdPKdEZN9SymEngine23LambdaRealDoubleVisitor6bvisitERKNS3_3MaxEEUlS1_E_E10_M_managerERSt9_Any_dataRKSA_St18_Manager_operation
libsymengine.so.0.6:_ZNSt17_Function_handlerIFdPKdEZN9SymEngine23LambdaRealDoubleVisitor6bvisitERKNS3_3MaxEEUlS1_E_E9_M_invokeERKSt9_Any_dataOS1_
libsymengine.so.0.6:_ZNSt17_Function_handlerIFdPKdEZN9SymEngine23LambdaRealDoubleVisitor6bvisitERKNS3_3MinEEUlS1_E_E10_M_managerERSt9_Any_dataRKSA_St18_Manager_operation
libsymengine.so.0.6:_ZNSt17_Function_handlerIFdPKdEZN9SymEngine23LambdaRealDoubleVisitor6bvisitERKNS3_3MinEEUlS1_E_E9_M_invokeERKSt9_Any_dataOS1_
libsymengine.so.0.6:_ZNSt17_Function_handlerIFdPKdEZN9SymEngine23LambdaRealDoubleVisitor6bvisitERKNS3_3NotEEUlS1_E_E10_M_managerERSt9_Any_dataRKSA_St18_Manager_operation
libsymengine.so.0.6:_ZNSt17_Function_handlerIFdPKdEZN9SymEngine23LambdaRealDoubleVisitor6bvisitERKNS3_3NotEEUlS1_E_E9_M_invokeERKSt9_Any_dataOS1_
libsymengine.so.0.6:_ZNSt17_Function_handlerIFdPKdEZN9SymEngine23LambdaRealDoubleVisitor6bvisitERKNS3_3XorEEUlS1_E_E10_M_managerERSt9_Any_dataRKSA_St18_Manager_operation
libsymengine.so.0.6:_ZNSt17_Function_handlerIFdPKdEZN9SymEngine23LambdaRealDoubleVisitor6bvisitERKNS3_3XorEEUlS1_E_E9_M_invokeERKSt9_Any_dataOS1_
libsymengine.so.0.6:_ZNSt17_Function_handlerIFdPKdEZN9SymEngine23LambdaRealDoubleVisitor6bvisitERKNS3_4ErfcEEUlS1_E_E10_M_managerERSt9_Any_dataRKSA_St18_Manager_operation
libsymengine.so.0.6:_ZNSt17_Function_handlerIFdPKdEZN9SymEngine23LambdaRealDoubleVisitor6bvisitERKNS3_4ErfcEEUlS1_E_E9_M_invokeERKSt9_Any_dataOS1_
libsymengine.so.0.6:_ZNSt17_Function_handlerIFdPKdEZN9SymEngine23LambdaRealDoubleVisitor6bvisitERKNS3_4SignEEUlS1_E_E10_M_managerERSt9_Any_dataRKSA_St18_Manager_operation
libsymengine.so.0.6:_ZNSt17_Function_handlerIFdPKdEZN9SymEngine23LambdaRealDoubleVisitor6bvisitERKNS3_4SignEEUlS1_E_E9_M_invokeERKSt9_Any_dataOS1_
libsymengine.so.0.6:_ZNSt17_Function_handlerIFdPKdEZN9SymEngine23LambdaRealDoubleVisitor6bvisitERKNS3_5ATan2EEUlS1_E_E10_M_managerERSt9_Any_dataRKSA_St18_Manager_operation
libsymengine.so.0.6:_ZNSt17_Function_handlerIFdPKdEZN9SymEngine23LambdaRealDoubleVisitor6bvisitERKNS3_5ATan2EEUlS1_E_E9_M_invokeERKSt9_Any_dataOS1_
libsymengine.so.0.6:_ZNSt17_Function_handlerIFdPKdEZN9SymEngine23LambdaRealDoubleVisitor6bvisitERKNS3_5FloorEEUlS1_E_E10_M_managerERSt9_Any_dataRKSA_St18_Manager_operation
libsymengine.so.0.6:_ZNSt17_Function_handlerIFdPKdEZN9SymEngine23LambdaRealDoubleVisitor6bvisitERKNS3_5FloorEEUlS1_E_E9_M_invokeERKSt9_Any_dataOS1_
libsymengine.so.0.6:_ZNSt17_Function_handlerIFdPKdEZN9SymEngine23LambdaRealDoubleVisitor6bvisitERKNS3_5GammaEEUlS1_E_E10_M_managerERSt9_Any_dataRKSA_St18_Manager_operation
libsymengine.so.0.6:_ZNSt17_Function_handlerIFdPKdEZN9SymEngine23LambdaRealDoubleVisitor6bvisitERKNS3_5GammaEEUlS1_E_E9_M_invokeERKSt9_Any_dataOS1_
libsymengine.so.0.6:_ZNSt17_Function_handlerIFdPKdEZN9SymEngine23LambdaRealDoubleVisitor6bvisitERKNS3_5InftyEEUlS1_E0_E10_M_managerERSt9_Any_dataRKSA_St18_Manager_operation
libsymengine.so.0.6:_ZNSt17_Function_handlerIFdPKdEZN9SymEngine23LambdaRealDoubleVisitor6bvisitERKNS3_5InftyEEUlS1_E0_E9_M_invokeERKSt9_Any_dataOS1_
libsymengine.so.0.6:_ZNSt17_Function_handlerIFdPKdEZN9SymEngine23LambdaRealDoubleVisitor6bvisitERKNS3_5InftyEEUlS1_E_E10_M_managerERSt9_Any_dataRKSA_St18_Manager_operation
libsymengine.so.0.6:_ZNSt17_Function_handlerIFdPKdEZN9SymEngine23LambdaRealDoubleVisitor6bvisitERKNS3_5InftyEEUlS1_E_E9_M_invokeERKSt9_Any_dataOS1_
libsymengine.so.0.6:_ZNSt17_Function_handlerIFdPKdEZN9SymEngine23LambdaRealDoubleVisitor6bvisitERKNS3_7CeilingEEUlS1_E_E10_M_managerERSt9_Any_dataRKSA_St18_Manager_operation
libsymengine.so.0.6:_ZNSt17_Function_handlerIFdPKdEZN9SymEngine23LambdaRealDoubleVisitor6bvisitERKNS3_7CeilingEEUlS1_E_E9_M_invokeERKSt9_Any_dataOS1_
libsymengine.so.0.6:_ZNSt17_Function_handlerIFdPKdEZN9SymEngine23LambdaRealDoubleVisitor6bvisitERKNS3_8ContainsEEUlS1_E_E10_M_managerERSt9_Any_dataRKSA_St18_Manager_operation
libsymengine.so.0.6:_ZNSt17_Function_handlerIFdPKdEZN9SymEngine23LambdaRealDoubleVisitor6bvisitERKNS3_8ContainsEEUlS1_E_E9_M_invokeERKSt9_Any_dataOS1_
libsymengine.so.0.6:_ZNSt17_Function_handlerIFdPKdEZN9SymEngine23LambdaRealDoubleVisitor6bvisitERKNS3_8EqualityEEUlS1_E_E10_M_managerERSt9_Any_dataRKSA_St18_Manager_operation
libsymengine.so.0.6:_ZNSt17_Function_handlerIFdPKdEZN9SymEngine23LambdaRealDoubleVisitor6bvisitERKNS3_8EqualityEEUlS1_E_E9_M_invokeERKSt9_Any_dataOS1_
libsymengine.so.0.6:_ZNSt17_Function_handlerIFdPKdEZN9SymEngine23LambdaRealDoubleVisitor6bvisitERKNS3_8LessThanEEUlS1_E_E10_M_managerERSt9_Any_dataRKSA_St18_Manager_operation
libsymengine.so.0.6:_ZNSt17_Function_handlerIFdPKdEZN9SymEngine23LambdaRealDoubleVisitor6bvisitERKNS3_8LessThanEEUlS1_E_E9_M_invokeERKSt9_Any_dataOS1_
libsymengine.so.0.6:_ZNSt17_Function_handlerIFdPKdEZN9SymEngine23LambdaRealDoubleVisitor6bvisitERKNS3_8LogGammaEEUlS1_E_E10_M_managerERSt9_Any_dataRKSA_St18_Manager_operation
libsymengine.so.0.6:_ZNSt17_Function_handlerIFdPKdEZN9SymEngine23LambdaRealDoubleVisitor6bvisitERKNS3_8LogGammaEEUlS1_E_E9_M_invokeERKSt9_Any_dataOS1_
libsymengine.so.0.6:_ZNSt17_Function_handlerIFdPKdEZN9SymEngine23LambdaRealDoubleVisitor6bvisitERKNS3_8TruncateEEUlS1_E_E10_M_managerERSt9_Any_dataRKSA_St18_Manager_operation
libsymengine.so.0.6:_ZNSt17_Function_handlerIFdPKdEZN9SymEngine23LambdaRealDoubleVisitor6bvisitERKNS3_8TruncateEEUlS1_E_E9_M_invokeERKSt9_Any_dataOS1_
libsymengine.so.0.6:_ZNSt17_Function_handlerIFdPKdEZN9SymEngine23LambdaRealDoubleVisitor6bvisitERKNS3_9PiecewiseEEUlS1_E_E10_M_managerERSt9_Any_dataRKSA_St18_Manager_operation
libsymengine.so.0.6:_ZNSt17_Function_handlerIFdPKdEZN9SymEngine23LambdaRealDoubleVisitor6bvisitERKNS3_9PiecewiseEEUlS1_E_E9_M_invokeERKSt9_Any_dataOS1_
libsymengine.so.0.6:ascii_art_str
libsymengine.so.0.6:basic_abs
libsymengine.so.0.6:basic_acos
libsymengine.so.0.6:basic_acosh
libsymengine.so.0.6:basic_acot
libsymengine.so.0.6:basic_acoth
libsymengine.so.0.6:basic_acsc
libsymengine.so.0.6:basic_acsch
libsymengine.so.0.6:basic_add
libsymengine.so.0.6:basic_as_numer_denom
libsymengine.so.0.6:basic_asec
libsymengine.so.0.6:basic_asech
libsymengine.so.0.6:basic_asin
libsymengine.so.0.6:basic_asinh
libsymengine.so.0.6:basic_assign
libsymengine.so.0.6:basic_atan
libsymengine.so.0.6:basic_atan2
libsymengine.so.0.6:basic_atanh
libsymengine.so.0.6:basic_beta
libsymengine.so.0.6:basic_cbrt
libsymengine.so.0.6:basic_coeff
libsymengine.so.0.6:basic_const_Catalan
libsymengine.so.0.6:basic_const_E
libsymengine.so.0.6:basic_const_EulerGamma
libsymengine.so.0.6:basic_const_GoldenRatio
libsymengine.so.0.6:basic_const_I
libsymengine.so.0.6:basic_const_complex_infinity
libsymengine.so.0.6:basic_const_infinity
libsymengine.so.0.6:basic_const_minus_one
libsymengine.so.0.6:basic_const_nan
libsymengine.so.0.6:basic_const_neginfinity
libsymengine.so.0.6:basic_const_one
libsymengine.so.0.6:basic_const_pi
libsymengine.so.0.6:basic_const_set
libsymengine.so.0.6:basic_const_zero
libsymengine.so.0.6:basic_cos
libsymengine.so.0.6:basic_cosh
libsymengine.so.0.6:basic_cot
libsymengine.so.0.6:basic_coth
libsymengine.so.0.6:basic_csc
libsymengine.so.0.6:basic_csch
libsymengine.so.0.6:basic_cse
libsymengine.so.0.6:basic_diff
libsymengine.so.0.6:basic_dirichlet_eta
libsymengine.so.0.6:basic_div
libsymengine.so.0.6:basic_eq
libsymengine.so.0.6:basic_erf
libsymengine.so.0.6:basic_erfc
libsymengine.so.0.6:basic_evalf
libsymengine.so.0.6:basic_exp
libsymengine.so.0.6:basic_expand
libsymengine.so.0.6:basic_free_heap
libsymengine.so.0.6:basic_free_stack
libsymengine.so.0.6:basic_free_symbols
libsymengine.so.0.6:basic_function_symbols
libsymengine.so.0.6:basic_gamma
libsymengine.so.0.6:basic_get_args
libsymengine.so.0.6:basic_get_class_from_id
libsymengine.so.0.6:basic_get_class_id
libsymengine.so.0.6:basic_get_type
libsymengine.so.0.6:basic_hash
libsymengine.so.0.6:basic_kronecker_delta
libsymengine.so.0.6:basic_lambertw
libsymengine.so.0.6:basic_log
libsymengine.so.0.6:basic_loggamma
libsymengine.so.0.6:basic_lowergamma
libsymengine.so.0.6:basic_max
libsymengine.so.0.6:basic_min
libsymengine.so.0.6:basic_mul
libsymengine.so.0.6:basic_neg
libsymengine.so.0.6:basic_neq
libsymengine.so.0.6:basic_new_heap
libsymengine.so.0.6:basic_new_stack
libsymengine.so.0.6:basic_parse
libsymengine.so.0.6:basic_parse2
libsymengine.so.0.6:basic_polygamma
libsymengine.so.0.6:basic_pow
libsymengine.so.0.6:basic_sec
libsymengine.so.0.6:basic_sech
libsymengine.so.0.6:basic_sin
libsymengine.so.0.6:basic_sinh
libsymengine.so.0.6:basic_solve_poly
libsymengine.so.0.6:basic_sqrt
libsymengine.so.0.6:basic_str
libsymengine.so.0.6:basic_str_ccode
libsymengine.so.0.6:basic_str_free
libsymengine.so.0.6:basic_str_jscode
libsymengine.so.0.6:basic_str_julia
libsymengine.so.0.6:basic_str_latex
libsymengine.so.0.6:basic_str_mathml
libsymengine.so.0.6:basic_sub
libsymengine.so.0.6:basic_subs
libsymengine.so.0.6:basic_subs2
libsymengine.so.0.6:basic_tan
libsymengine.so.0.6:basic_tanh
libsymengine.so.0.6:basic_uppergamma
libsymengine.so.0.6:basic_zeta
libsymengine.so.0.6:complex_base_imaginary_part
libsymengine.so.0.6:complex_base_real_part
libsymengine.so.0.6:complex_double_get
libsymengine.so.0.6:complex_set
libsymengine.so.0.6:complex_set_mpq
libsymengine.so.0.6:complex_set_rat
libsymengine.so.0.6:dense_matrix_FFLDU
libsymengine.so.0.6:dense_matrix_FFLU
libsymengine.so.0.6:dense_matrix_LDL
libsymengine.so.0.6:dense_matrix_LU
libsymengine.so.0.6:dense_matrix_LU_solve
libsymengine.so.0.6:dense_matrix_add_matrix
libsymengine.so.0.6:dense_matrix_add_scalar
libsymengine.so.0.6:dense_matrix_col_del
libsymengine.so.0.6:dense_matrix_col_join
libsymengine.so.0.6:dense_matrix_cols
libsymengine.so.0.6:dense_matrix_det
libsymengine.so.0.6:dense_matrix_diag
libsymengine.so.0.6:dense_matrix_diff
libsymengine.so.0.6:dense_matrix_eq
libsymengine.so.0.6:dense_matrix_eye
libsymengine.so.0.6:dense_matrix_free
libsymengine.so.0.6:dense_matrix_get_basic
libsymengine.so.0.6:dense_matrix_inv
libsymengine.so.0.6:dense_matrix_jacobian
libsymengine.so.0.6:dense_matrix_mul_matrix
libsymengine.so.0.6:dense_matrix_mul_scalar
libsymengine.so.0.6:dense_matrix_new
libsymengine.so.0.6:dense_matrix_new_rows_cols
libsymengine.so.0.6:dense_matrix_new_vec
libsymengine.so.0.6:dense_matrix_ones
libsymengine.so.0.6:dense_matrix_row_del
libsymengine.so.0.6:dense_matrix_row_join
libsymengine.so.0.6:dense_matrix_rows
libsymengine.so.0.6:dense_matrix_rows_cols
libsymengine.so.0.6:dense_matrix_set
libsymengine.so.0.6:dense_matrix_set_basic
libsymengine.so.0.6:dense_matrix_str
libsymengine.so.0.6:dense_matrix_submatrix
libsymengine.so.0.6:dense_matrix_transpose
libsymengine.so.0.6:dense_matrix_zeros
libsymengine.so.0.6:function_symbol_get_name
libsymengine.so.0.6:function_symbol_set
libsymengine.so.0.6:integer_get_mpz
libsymengine.so.0.6:integer_get_si
libsymengine.so.0.6:integer_get_ui
libsymengine.so.0.6:integer_set_mpz
libsymengine.so.0.6:integer_set_si
libsymengine.so.0.6:integer_set_str
libsymengine.so.0.6:integer_set_ui
libsymengine.so.0.6:is_a_Complex
libsymengine.so.0.6:is_a_ComplexDouble
libsymengine.so.0.6:is_a_ComplexMPC
libsymengine.so.0.6:is_a_DenseMatrix
libsymengine.so.0.6:is_a_Integer
libsymengine.so.0.6:is_a_Number
libsymengine.so.0.6:is_a_Rational
libsymengine.so.0.6:is_a_RealDouble
libsymengine.so.0.6:is_a_RealMPFR
libsymengine.so.0.6:is_a_SparseMatrix
libsymengine.so.0.6:is_a_Symbol
libsymengine.so.0.6:lambda_real_double_visitor_call
libsymengine.so.0.6:lambda_real_double_visitor_free
libsymengine.so.0.6:lambda_real_double_visitor_init
libsymengine.so.0.6:lambda_real_double_visitor_new
libsymengine.so.0.6:mapbasicbasic_free
libsymengine.so.0.6:mapbasicbasic_get
libsymengine.so.0.6:mapbasicbasic_insert
libsymengine.so.0.6:mapbasicbasic_new
libsymengine.so.0.6:mapbasicbasic_size
libsymengine.so.0.6:ntheory_binomial
libsymengine.so.0.6:ntheory_factorial
libsymengine.so.0.6:ntheory_fibonacci
libsymengine.so.0.6:ntheory_fibonacci2
libsymengine.so.0.6:ntheory_gcd
libsymengine.so.0.6:ntheory_gcd_ext
libsymengine.so.0.6:ntheory_lcm
libsymengine.so.0.6:ntheory_lucas
libsymengine.so.0.6:ntheory_lucas2
libsymengine.so.0.6:ntheory_mod
libsymengine.so.0.6:ntheory_mod_f
libsymengine.so.0.6:ntheory_mod_inverse
libsymengine.so.0.6:ntheory_nextprime
libsymengine.so.0.6:ntheory_quotient
libsymengine.so.0.6:ntheory_quotient_f
libsymengine.so.0.6:ntheory_quotient_mod
libsymengine.so.0.6:ntheory_quotient_mod_f
libsymengine.so.0.6:number_is_complex
libsymengine.so.0.6:number_is_negative
libsymengine.so.0.6:number_is_positive
libsymengine.so.0.6:number_is_zero
libsymengine.so.0.6:rational_get_mpq
libsymengine.so.0.6:rational_set
libsymengine.so.0.6:rational_set_mpq
libsymengine.so.0.6:rational_set_si
libsymengine.so.0.6:rational_set_ui
libsymengine.so.0.6:real_double_get_d
libsymengine.so.0.6:real_double_set_d
libsymengine.so.0.6:real_mpfr_get
libsymengine.so.0.6:real_mpfr_get_d
libsymengine.so.0.6:real_mpfr_get_prec
libsymengine.so.0.6:real_mpfr_set
libsymengine.so.0.6:real_mpfr_set_d
libsymengine.so.0.6:real_mpfr_set_str
libsymengine.so.0.6:setbasic_erase
libsymengine.so.0.6:setbasic_find
libsymengine.so.0.6:setbasic_free
libsymengine.so.0.6:setbasic_get
libsymengine.so.0.6:setbasic_insert
libsymengine.so.0.6:setbasic_new
libsymengine.so.0.6:setbasic_size
libsymengine.so.0.6:sparse_matrix_eq
libsymengine.so.0.6:sparse_matrix_free
libsymengine.so.0.6:sparse_matrix_get_basic
libsymengine.so.0.6:sparse_matrix_init
libsymengine.so.0.6:sparse_matrix_new
libsymengine.so.0.6:sparse_matrix_rows_cols
libsymengine.so.0.6:sparse_matrix_set_basic
libsymengine.so.0.6:sparse_matrix_str
libsymengine.so.0.6:symbol_set
libsymengine.so.0.6:symengine_have_component
libsymengine.so.0.6:symengine_print_stack_on_segfault
libsymengine.so.0.6:symengine_version
libsymengine.so.0.6:vecbasic_erase
libsymengine.so.0.6:vecbasic_free
libsymengine.so.0.6:vecbasic_get
libsymengine.so.0.6:vecbasic_linsolve
libsymengine.so.0.6:vecbasic_new
libsymengine.so.0.6:vecbasic_push_back
libsymengine.so.0.6:vecbasic_set
libsymengine.so.0.6:vecbasic_size
libsymengine.so.0.6:vectorint_free
libsymengine.so.0.6:vectorint_get
libsymengine.so.0.6:vectorint_new
libsymengine.so.0.6:vectorint_placement_free
libsymengine.so.0.6:vectorint_placement_new
libsymengine.so.0.6:vectorint_placement_new_check
libsymengine.so.0.6:vectorint_push_back
